(lp0
(lp1
S'Q7'
p2
aF1.0
aF0.0
aF0.0
aF0.0
aF0.0
aF0.0
aF0.0
aF0.0
aF0.0
aF0.0
aF262.0
aF2.73890686318856
aF0.7216753258915948
aF0.7133727163908399
aF2.415584415584
aF0.458874458876
aF0.2683982683984
aF0.8455988456
aF0.005772005772
aF0.005772005772
aF0.0
aF0.0
aF0.0
aF3.9998536769021937
aI0
aa(lp3
S'Q10'
p4
aF0.0
aF0.0
aF1.0
aF0.0
aF0.0
aF0.0
aF0.0
aF0.0
aF0.0
aF0.0
aF1008.0
aF2.0767123755585457
aF3.0535334384815043
aF1.7053669238612517
aF3.139269406395
aF0.4794520547945
aF0.559360730595
aF0.7876712328750001
aF0.03424657534245
aF0.0
aF0.0
aF1.0
aF0.0
aF4.999908569626832
aI2
aa(lp5
S'Q13'
p6
aF0.0
aF0.0
aF0.0
aF0.0
aF0.0
aF0.0
aF0.0
aF0.0
aF1.0
aF0.0
aF300.0
aF2.1506664159021107
aF1.9367439039482968
aF1.2129806948689135
aF1.883561643837
aF0.2876712328767
aF0.335616438357
aF0.472602739725
aF0.02054794520547
aF0.0
aF1.0
aF0.0
aF0.0
aF2.9998589417843435
aI2
aa(lp7
S'Q16'
p8
aF0.0
aF0.0
aF0.0
aF0.0
aF0.0
aF0.0
aF0.0
aF0.0
aF0.0
aF0.0
aF5.0
aF0.5602786894224046
aF0.06666651932712857
aF0.0
aF0.339711664482
aF0.30878112713
aF0.110353866317
aF0.236435124509
aF0.00471821756225
aF0.0
aF1.0
aF0.0
aF0.0
aF0.9981223364503682
aI2
aa(lp9
S'Q20'
p10
aF0.0
aF0.0
aF0.0
aF0.0
aF0.0
aF0.0
aF0.0
aF0.0
aF0.0
aF0.0
aF216.0
aF3.892204849657638
aF1.6579979971235312
aF0.6553618257656544
aF3.01948051948
aF0.573593073595
aF0.33549783549799994
aF1.056998557
aF0.007215007214999999
aF0.007215007214999999
aF1.0
aF0.0
aF0.0
aF4.999684137005824
aI1
aa(lp11
S'Q44'
p12
aF0.0
aF0.0
aF0.0
aF0.0
aF0.0
aF1.0
aF1.0
aF0.0
aF0.0
aF0.0
aF209.0
aF2.582163065361267
aF1.3913270583032813
aF0.8734818206165568
aF2.04761904762
aF0.507936507936
aF0.460317460316
aF0.984126984128
aF0.0
aF0.0
aF0.0
aF0.0
aF0.0
aF3.9998547181074855
aI0
aa(lp13
S'Q56'
p14
aF1.0
aF0.0
aF0.0
aF0.0
aF0.0
aF0.0
aF0.0
aF0.0
aF0.0
aF0.0
aF284.0
aF2.3229361588089326
aF1.5092281360824027
aF0.803861070171781
aF1.883561643837
aF0.2876712328767
aF0.335616438357
aF0.472602739725
aF0.02054794520547
aF0.0
aF0.0
aF0.0
aF0.0
aF2.999881181341557
aI2
aa(lp15
S'Q66'
p16
aF0.0
aF0.0
aF0.0
aF0.0
aF0.0
aF0.0
aF0.0
aF0.0
aF0.0
aF0.0
aF553.0
aF4.3277593872896
aF4.0204671173576525
aF2.4562038036540765
aF2.6138952164
aF0.632118451025
aF0.5466970387250001
aF1.17881548975
aF0.02847380410025
aF0.0
aF0.0
aF0.0
aF0.0
aF4.999958645829783
aI1
aa(lp17
S'Q78'
p18
aF2.0
aF0.0
aF1.0
aF0.0
aF0.0
aF1.0
aF0.0
aF0.0
aF0.0
aF0.0
aF507.0
aF3.2729088132457083
aF3.5921726774610585
aF1.526510867885735
aF2.511415525116
aF0.3835616438356
aF0.447488584476
aF0.6301369863
aF0.02739726027396
aF0.0
aF0.0
aF0.0
aF0.0
aF3.999946404699158
aI0
aa(lp19
S'Q84'
p20
aF1.0
aF0.0
aF1.0
aF0.0
aF0.0
aF2.0
aF0.0
aF0.0
aF3.0
aF0.0
aF944.0
aF3.817553194179767
aF3.6128640716154594
aF0.6834168576269825
aF3.3746630727759994
aF1.33692722372
aF0.7654986522911998
aF2.3719676549840005
aF0.1509433962264
aF0.0
aF4.0
aF0.0
aF0.0
aF7.999705016465345
aI2
aa(lp21
S'Q97'
p22
aF0.0
aF0.0
aF0.0
aF0.0
aF0.0
aF0.0
aF0.0
aF0.0
aF0.0
aF0.0
aF255.0
aF2.4758432419139274
aF2.78193090086754
aF0.8268965088000468
aF3.477839335182
aF0.772853185596
aF0.590027700831
aF1.155124653738
aF0.004155124653738
aF0.0
aF2.0
aF2.0
aF0.0
aF5.998927659695523
aI0
aa(lp23
S'Q105'
p24
aF0.0
aF0.0
aF1.0
aF0.0
aF0.0
aF0.0
aF0.0
aF5.0
aF0.0
aF0.0
aF364.0
aF3.669271607216176
aF4.772776034055147
aF2.2633488704782243
aF3.28125
aF0.1822916666665
aF0.833333333335
aF0.703125
aF0.0
aF0.0
aF0.0
aF0.0
aF0.0
aF4.999877334663273
aI1
aa(lp25
S'Q115'
p26
aF0.0
aF0.0
aF0.0
aF0.0
aF0.0
aF0.0
aF0.0
aF0.0
aF0.0
aF0.0
aF397.0
aF3.675944300012796
aF3.422069782144076
aF2.0250518966778706
aF2.511415525116
aF0.3835616438356
aF0.447488584476
aF0.6301369863
aF0.02739726027396
aF0.0
aF1.0
aF0.0
aF0.0
aF3.9999525616131844
aI1
aa(lp27
S'Q118'
p28
aF0.0
aF0.0
aF0.0
aF0.0
aF0.0
aF0.0
aF0.0
aF0.0
aF0.0
aF0.0
aF913.0
aF1.6977001479295963
aF1.8315600595051533
aF0.13607464044956658
aF2.985074626866
aF0.4925373134328
aF0.8208955223879999
aF1.701492537312
aF0.0
aF0.0
aF0.0
aF1.0
aF0.0
aF5.999615149202351
aI2
aa(lp29
S'Q126'
p30
aF0.0
aF0.0
aF0.0
aF0.0
aF0.0
aF0.0
aF0.0
aF0.0
aF0.0
aF0.0
aF53.0
aF0.748565381916479
aF0.8014207807416152
aF0.49617558489982555
aF1.255707762558
aF0.1917808219178
aF0.223744292238
aF0.31506849315
aF0.01369863013698
aF0.0
aF0.0
aF1.0
aF0.0
aF1.99991370401498
aI0
aa(lp31
S'Q142'
p32
aF0.0
aF0.0
aF0.0
aF0.0
aF0.0
aF0.0
aF0.0
aF0.0
aF0.0
aF0.0
aF9.0
aF0.07294783280916624
aF0.6841121661297295
aF0.2
aF0.339711664482
aF0.30878112713
aF0.110353866317
aF0.236435124509
aF0.00471821756225
aF0.0
aF0.0
aF0.0
aF0.0
aF0.999961949066939
aI2
aa(lp33
S'Q153'
p34
aF0.0
aF0.0
aF0.0
aF0.0
aF0.0
aF1.0
aF0.0
aF0.0
aF1.0
aF0.0
aF868.0
aF6.441728485230439
aF5.828392561407545
aF1.2346297899547851
aF4.934579439247999
aF5.532710280367998
aF1.1962616822432002
aF4.186915887856001
aF0.14953271028032006
aF0.0
aF6.0
aF1.0
aF0.0
aF15.999070701989437
aI2
aa(lp35
S'Q174'
p36
aF2.0
aF0.0
aF0.0
aF0.0
aF0.0
aF0.0
aF0.0
aF0.0
aF0.0
aF0.0
aF41.0
aF0.35428548998330966
aF0.39350873005553666
aF0.0
aF0.679423328964
aF0.61756225426
aF0.220707732634
aF0.472870249018
aF0.0094364351245
aF0.0
aF0.0
aF0.0
aF0.0
aF1.9998847035613818
aI0
aa(lp37
S'Q189'
p38
aF0.0
aF0.0
aF2.0
aF0.0
aF0.0
aF2.0
aF0.0
aF0.0
aF0.0
aF0.0
aF714.0
aF0.7358383496536336
aF1.6142160352691222
aF0.5701352101385333
aF3.139269406395
aF0.4794520547945
aF0.559360730595
aF0.7876712328750001
aF0.03424657534245
aF0.0
aF0.0
aF1.0
aF0.0
aF4.999893109852986
aI1
aa(lp39
S'Q209'
p40
aF0.0
aF0.0
aF0.0
aF0.0
aF0.0
aF0.0
aF0.0
aF0.0
aF0.0
aF0.0
aF14.0
aF0.1037468903681469
aF0.611443130143267
aF0.0
aF0.339711664482
aF0.30878112713
aF0.110353866317
aF0.236435124509
aF0.00471821756225
aF0.0
aF0.0
aF1.0
aF0.0
aF0.9998538626882973
aI0
aa(lp41
S'Q211'
p42
aF0.0
aF0.0
aF0.0
aF0.0
aF0.0
aF0.0
aF0.0
aF3.0
aF0.0
aF0.0
aF490.0
aF1.9510553254574288
aF2.453828307464145
aF1.5525250339246086
aF1.5683371298400002
aF0.379271070615
aF0.328018223235
aF0.70728929385
aF0.01708428246015
aF0.0
aF1.0
aF0.0
aF0.0
aF2.9999596675255695
aI2
aa(lp43
S'Q223'
p44
aF2.0
aF0.0
aF0.0
aF0.0
aF0.0
aF3.0
aF0.0
aF1.0
aF3.0
aF0.0
aF1880.0
aF14.101299258315356
aF14.854787350537098
aF4.288822473033656
aF15.41420664207501
aF5.7481549815639985
aF3.088560885610001
aF6.634686346851002
aF0.11439114391146994
aF0.0
aF6.0
aF3.0
aF0.0
aF39.97979994116023
aI1
aa(lp45
S'Q224'
p46
aF0.0
aF0.0
aF0.0
aF0.0
aF0.0
aF0.0
aF0.0
aF0.0
aF0.0
aF0.0
aF46.0
aF0.08861212067600108
aF0.5812790193035496
aF0.0
aF0.341395348837
aF0.262325581395
aF0.0986046511628
aF0.29488372093
aF0.00279069767442
aF0.0
aF0.0
aF1.0
aF0.0
aF0.9996544301493872
aI2
aa(lp47
S'Q231'
p48
aF0.0
aF0.0
aF0.0
aF0.0
aF0.0
aF0.0
aF0.0
aF0.0
aF4.0
aF0.0
aF228.0
aF3.912948234125474
aF3.1847632817952847
aF2.1154562713548835
aF3.01948051948
aF0.573593073595
aF0.33549783549799994
aF1.056998557
aF0.007215007214999999
aF0.007215007214999999
aF2.0
aF1.0
aF0.0
aF4.999583450928221
aI1
aa(lp49
S'Q258'
p50
aF1.0
aF0.0
aF1.0
aF0.0
aF0.0
aF0.0
aF0.0
aF0.0
aF0.0
aF0.0
aF427.0
aF3.9587169963938043
aF3.7525228803948094
aF2.396782395476741
aF3.01948051948
aF0.573593073595
aF0.33549783549799994
aF1.056998557
aF0.007215007214999999
aF0.007215007214999999
aF1.0
aF0.0
aF0.0
aF4.999951997533974
aI2
aa(lp51
S'Q278'
p52
aF1.0
aF0.0
aF1.0
aF0.0
aF0.0
aF0.0
aF0.0
aF0.0
aF1.0
aF0.0
aF485.0
aF3.6993324313572167
aF3.5973214053934974
aF1.7917491034587312
aF2.351464435148
aF0.41841004184
aF0.326359832636
aF0.89539748954
aF0.00836820083684
aF0.0
aF1.0
aF0.0
aF0.0
aF3.9999332190028114
aI2
aa(lp53
S'Q280'
p54
aF0.0
aF0.0
aF0.0
aF0.0
aF0.0
aF0.0
aF0.0
aF0.0
aF2.0
aF0.0
aF683.0
aF4.034575054068554
aF0.5666951550503362
aF1.5726135393507645
aF2.717693315856
aF2.47024901704
aF0.8828309305360003
aF1.8914809960719998
aF0.037745740498
aF0.0
aF0.0
aF0.0
aF0.0
aF7.999614678372847
aI1
aa(lp55
S'Q296'
p56
aF1.0
aF0.0
aF0.0
aF0.0
aF0.0
aF0.0
aF0.0
aF0.0
aF4.0
aF0.0
aF2394.0
aF8.098169981572456
aF7.082382258818561
aF3.0169127108429863
aF6.466527196656999
aF1.1506276150599999
aF0.8974895397490001
aF2.462343096235
aF0.023012552301310003
aF0.0
aF3.0
aF0.0
aF0.0
aF10.999894066969032
aI0
aa(lp57
S'Q314'
p58
aF0.0
aF0.0
aF0.0
aF0.0
aF0.0
aF2.0
aF0.0
aF0.0
aF0.0
aF0.0
aF827.0
aF4.412021682218378
aF3.289095394183046
aF1.9540350185354922
aF3.01948051948
aF0.573593073595
aF0.33549783549799994
aF1.056998557
aF0.007215007214999999
aF0.007215007214999999
aF2.0
aF0.0
aF0.0
aF4.99993341234841
aI0
aa(lp59
S'Q322'
p60
aF2.0
aF0.0
aF0.0
aF0.0
aF0.0
aF0.0
aF0.0
aF0.0
aF0.0
aF0.0
aF236.0
aF2.337057503589384
aF2.620993190038577
aF1.54862721644252
aF1.7389196675910001
aF0.38642659279799996
aF0.2950138504155
aF0.577562326869
aF0.002077562326869
aF0.0
aF0.0
aF0.0
aF0.0
aF2.999961310485783
aI0
aa(lp61
S'Q341'
p62
aF0.0
aF0.0
aF0.0
aF0.0
aF0.0
aF0.0
aF0.0
aF0.0
aF0.0
aF0.0
aF161.0
aF2.1698610509007628
aF0.7632413644822795
aF0.4543051478289893
aF1.4916974169750001
aF0.5562730627320001
aF0.29889298893
aF0.642066420663
aF0.011070110701110001
aF0.0
aF0.0
aF1.0
aF0.0
aF2.999864174825917
aI2
aa(lp63
S'Q361'
p64
aF2.0
aF0.0
aF0.0
aF0.0
aF0.0
aF0.0
aF0.0
aF0.0
aF0.0
aF0.0
aF509.0
aF4.384488901479225
aF3.9230356584709005
aF2.334866413937267
aF2.109164420485
aF0.835579514825
aF0.47843665768199994
aF1.4824797843650002
aF0.09433962264149999
aF0.0
aF0.0
aF0.0
aF0.0
aF4.999946395579059
aI0
aa(lp65
S'Q364'
p66
aF0.0
aF0.0
aF0.0
aF0.0
aF0.0
aF0.0
aF0.0
aF1.0
aF0.0
aF0.0
aF114.0
aF1.193605731693344
aF0.5578264249365769
aF0.18257418583505536
aF0.679423328964
aF0.61756225426
aF0.220707732634
aF0.472870249018
aF0.0094364351245
aF0.0
aF1.0
aF1.0
aF0.0
aF1.9999612592330651
aI2
aa(lp67
S'Q381'
p68
aF0.0
aF0.0
aF0.0
aF0.0
aF0.0
aF0.0
aF0.0
aF0.0
aF0.0
aF0.0
aF964.0
aF3.94687060197961
aF3.228015393062352
aF1.173868975134054
aF1.69855832241
aF1.54390563565
aF0.5517693315850001
aF1.182175622545
aF0.02359108781125
aF0.0
aF0.0
aF0.0
aF0.0
aF4.999904952712225
aI2
aa(lp69
S'Q386'
p70
aF0.0
aF0.0
aF0.0
aF0.0
aF0.0
aF0.0
aF0.0
aF0.0
aF0.0
aF0.0
aF195.0
aF1.1233965026338257
aF0.7077082186500182
aF0.24565184222025874
aF1.207792207792
aF0.229437229438
aF0.1341991341992
aF0.4227994228
aF0.002886002886
aF0.002886002886
aF1.0
aF0.0
aF0.0
aF1.9999636689239695
aI2
aa(lp71
S'Q407'
p72
aF1.0
aF0.0
aF1.0
aF0.0
aF0.0
aF0.0
aF0.0
aF0.0
aF0.0
aF0.0
aF2338.0
aF8.63616205192463
aF1.1181246928918975
aF0.8006858689127593
aF9.172214941014003
aF8.337090432509996
aF2.9795543905589996
aF6.383748361742998
aF0.12739187418074993
aF0.0
aF10.0
aF2.0
aF0.0
aF26.998170870410227
aI2
aa(lp73
S'Q414'
p74
aF0.0
aF0.0
aF0.0
aF0.0
aF0.0
aF0.0
aF0.0
aF0.0
aF2.0
aF0.0
aF416.0
aF4.015731735480997
aF3.010400025786235
aF1.760959721988207
aF2.530997304582
aF1.00269541779
aF0.5741239892183999
aF1.7789757412380003
aF0.11320754716979999
aF0.0
aF5.0
aF0.0
aF0.0
aF5.999880871800675
aI2
aa(lp75
S'Q424'
p76
aF0.0
aF0.0
aF0.0
aF0.0
aF0.0
aF0.0
aF0.0
aF0.0
aF1.0
aF0.0
aF158.0
aF1.9200985581356318
aF1.8378027199509224
aF1.177214313143606
aF1.207792207792
aF0.229437229438
aF0.1341991341992
aF0.4227994228
aF0.002886002886
aF0.002886002886
aF1.0
aF0.0
aF0.0
aF1.9999701205671032
aI1
aa(lp77
S'Q430'
p78
aF0.0
aF0.0
aF0.0
aF0.0
aF0.0
aF0.0
aF0.0
aF0.0
aF0.0
aF0.0
aF78.0
aF0.19109970871420276
aF0.36354768493490647
aF0.0
aF0.339711664482
aF0.30878112713
aF0.110353866317
aF0.236435124509
aF0.00471821756225
aF0.0
aF1.0
aF0.0
aF0.0
aF0.9999519518400911
aI2
aa(lp79
S'Q435'
p80
aF0.0
aF0.0
aF0.0
aF0.0
aF0.0
aF0.0
aF0.0
aF0.0
aF0.0
aF0.0
aF206.0
aF2.8876460365453602
aF2.742921250757539
aF2.037075588601266
aF1.811688311688
aF0.34415584415699996
aF0.20129870129879998
aF0.6341991342
aF0.004329004329
aF0.004329004329
aF0.0
aF0.0
aF0.0
aF2.9999740734080165
aI2
aa(lp81
S'Q444'
p82
aF0.0
aF0.0
aF0.0
aF0.0
aF0.0
aF0.0
aF0.0
aF0.0
aF1.0
aF0.0
aF46.0
aF0.9640492740622909
aF0.6630264508202417
aF0.6615185844757785
aF0.579639889197
aF0.128808864266
aF0.0983379501385
aF0.192520775623
aF0.000692520775623
aF0.0
aF1.0
aF0.0
aF0.0
aF0.9999885740473876
aI2
aa(lp83
S'Q453'
p84
aF2.0
aF0.0
aF0.0
aF0.0
aF0.0
aF0.0
aF0.0
aF0.0
aF1.0
aF0.0
aF223.0
aF2.355595217366216
aF2.6195795548207452
aF1.728289364367011
aF1.811688311688
aF0.34415584415699996
aF0.20129870129879998
aF0.6341991342
aF0.004329004329
aF0.004329004329
aF3.0
aF0.0
aF0.0
aF2.9999699376260227
aI0
aa(lp85
S'Q458'
p86
aF1.0
aF0.0
aF0.0
aF0.0
aF0.0
aF0.0
aF0.0
aF0.0
aF1.0
aF0.0
aF710.0
aF7.800634667359704
aF7.412648572840859
aF6.756401955202106
aF5.216759002772999
aF1.1592797783939999
aF0.8850415512465
aF1.7326869806070002
aF0.006232686980607
aF0.0
aF1.0
aF0.0
aF0.0
aF8.999920369782323
aI1
aa(lp87
S'Q461'
p88
aF1.0
aF0.0
aF1.0
aF0.0
aF0.0
aF0.0
aF0.0
aF0.0
aF0.0
aF0.0
aF366.0
aF5.006048142542511
aF3.2848411586471893
aF3.635180932011388
aF3.767123287674
aF0.5753424657534
aF0.671232876714
aF0.9452054794500001
aF0.04109589041094
aF0.0
aF1.0
aF0.0
aF0.0
aF5.9998609941052985
aI1
aa(lp89
S'Q476'
p90
aF0.0
aF0.0
aF0.0
aF0.0
aF0.0
aF0.0
aF0.0
aF0.0
aF0.0
aF0.0
aF261.0
aF1.875053295436208
aF1.6191244039672918
aF0.8721235294054974
aF1.04555808656
aF0.25284738041
aF0.21867881549
aF0.4715261959
aF0.0113895216401
aF0.0
aF0.0
aF0.0
aF0.0
aF1.9999742744274625
aI2
aa(lp91
S'Q478'
p92
aF0.0
aF0.0
aF0.0
aF0.0
aF0.0
aF0.0
aF0.0
aF0.0
aF0.0
aF0.0
aF236.0
aF4.12343949815232
aF1.703166621232104
aF1.5945060361295451
aF2.0382699868920002
aF1.85268676278
aF0.6621231979020001
aF1.418610747054
aF0.0283093053735
aF0.0
aF0.0
aF0.0
aF0.0
aF5.999796392538333
aI2
aa(lp93
S'Q482'
p94
aF2.0
aF0.0
aF0.0
aF0.0
aF0.0
aF0.0
aF0.0
aF2.0
aF0.0
aF0.0
aF349.0
aF2.826614838111701
aF3.0501312260387525
aF0.41884908008757316
aF2.377981651374
aF2.16146788991
aF0.7724770642190002
aF1.6550458715629999
aF0.03302752293575
aF0.0
aF1.0
aF1.0
aF0.0
aF6.999632291204627
aI0
aa(lp95
S'Q499'
p96
aF3.0
aF0.0
aF1.0
aF0.0
aF0.0
aF0.0
aF0.0
aF0.0
aF0.0
aF0.0
aF730.0
aF6.42006177230191
aF7.114512819888512
aF4.588198657221729
aF4.702928870296
aF0.83682008368
aF0.652719665272
aF1.7907949790799997
aF0.01673640167368
aF0.0
aF0.0
aF0.0
aF0.0
aF7.999939446011387
aI0
aa(lp97
S'Q501'
p98
aF0.0
aF0.0
aF0.0
aF0.0
aF0.0
aF0.0
aF0.0
aF1.0
aF1.0
aF0.0
aF267.0
aF2.9278764290915995
aF2.295062363024976
aF1.3722896811968506
aF1.811688311688
aF0.34415584415699996
aF0.20129870129879998
aF0.6341991342
aF0.004329004329
aF0.004329004329
aF1.0
aF0.0
aF0.0
aF2.999968203091163
aI2
aa(lp99
S'Q542'
p100
aF0.0
aF0.0
aF1.0
aF0.0
aF0.0
aF0.0
aF0.0
aF0.0
aF0.0
aF0.0
aF341.0
aF2.9344614040679824
aF2.5673042053918333
aF1.646916217654149
aF1.811688311688
aF0.34415584415699996
aF0.20129870129879998
aF0.6341991342
aF0.004329004329
aF0.004329004329
aF0.0
aF0.0
aF0.0
aF2.9999618392341496
aI2
aa(lp101
S'Q543'
p102
aF0.0
aF0.0
aF0.0
aF0.0
aF0.0
aF2.0
aF0.0
aF0.0
aF1.0
aF0.0
aF450.0
aF1.7444039231125639
aF2.6315963449891093
aF0.683910231741531
aF1.5683371298400002
aF0.379271070615
aF0.328018223235
aF0.70728929385
aF0.01708428246015
aF0.0
aF1.0
aF0.0
aF0.0
aF2.9999691351723143
aI0
aa(lp103
S'Q545'
p104
aF2.0
aF0.0
aF1.0
aF0.0
aF0.0
aF0.0
aF0.0
aF0.0
aF2.0
aF0.0
aF3359.0
aF10.614228516850206
aF11.613342544201862
aF0.8868149824387725
aF6.486511627902997
aF4.984186046505
aF1.8734883720932005
aF5.602790697669999
aF0.05302325581398001
aF0.0
aF2.0
aF3.0
aF0.0
aF18.99844021275743
aI0
aa(lp105
S'Q562'
p106
aF2.0
aF0.0
aF1.0
aF0.0
aF0.0
aF7.0
aF0.0
aF0.0
aF4.0
aF0.0
aF2191.0
aF12.34333283717566
aF16.637794764509287
aF2.992094670482942
aF8.876279069761997
aF6.820465116270002
aF2.5637209302328006
aF7.666976744179997
aF0.07255813953492
aF0.0
aF4.0
aF1.0
aF0.0
aF34.997987193639865
aI0
aa(lp107
S'Q575'
p108
aF1.0
aF0.0
aF0.0
aF0.0
aF0.0
aF0.0
aF0.0
aF0.0
aF0.0
aF0.0
aF603.0
aF4.893278958967981
aF4.2559900923598715
aF3.713886645982674
aF3.139269406395
aF0.4794520547945
aF0.559360730595
aF0.7876712328750001
aF0.03424657534245
aF0.0
aF0.0
aF0.0
aF0.0
aF4.999966629222471
aI2
aa(lp109
S'Q596'
p110
aF0.0
aF0.0
aF0.0
aF0.0
aF0.0
aF0.0
aF0.0
aF0.0
aF0.0
aF0.0
aF80.0
aF3.142145794805565
aF2.4506657146201407
aF1.30573802983447
aF1.69855832241
aF1.54390563565
aF0.5517693315850001
aF1.182175622545
aF0.02359108781125
aF0.0
aF2.0
aF0.0
aF0.0
aF31.999973186751483
aI1
aa(lp111
S'Q609'
p112
aF0.0
aF0.0
aF0.0
aF0.0
aF0.0
aF1.0
aF0.0
aF0.0
aF4.0
aF0.0
aF1192.0
aF6.647222654402988
aF7.269416350058273
aF2.2390285495098072
aF5.061994609164
aF2.00539083558
aF1.1482479784367998
aF3.557951482476001
aF0.22641509433959997
aF0.0
aF3.0
aF2.0
aF1.0
aF11.999572729614249
aI0
aa(lp113
S'Q611'
p114
aF2.0
aF0.0
aF0.0
aF0.0
aF0.0
aF0.0
aF0.0
aF0.0
aF2.0
aF0.0
aF254.0
aF2.7725945719832907
aF2.874183074558201
aF1.2653031811012294
aF3.477839335182
aF0.772853185596
aF0.590027700831
aF1.155124653738
aF0.004155124653738
aF0.0
aF2.0
aF1.0
aF0.0
aF5.999640665388045
aI0
aa(lp115
S'Q612'
p116
aF2.0
aF0.0
aF0.0
aF0.0
aF0.0
aF1.0
aF0.0
aF0.0
aF0.0
aF0.0
aF794.0
aF4.817580681866946
aF3.5677389473359504
aF2.5804535106334745
aF3.767123287674
aF0.5753424657534
aF0.671232876714
aF0.9452054794500001
aF0.04109589041094
aF0.0
aF0.0
aF0.0
aF0.0
aF5.999478248022695
aI0
aa(lp117
S'Q617'
p118
aF0.0
aF0.0
aF0.0
aF0.0
aF0.0
aF0.0
aF0.0
aF0.0
aF1.0
aF0.0
aF250.0
aF2.499429987239233
aF2.4404801263148843
aF1.5311033668296985
aF1.5683371298400002
aF0.379271070615
aF0.328018223235
aF0.70728929385
aF0.01708428246015
aF0.0
aF1.0
aF0.0
aF0.0
aF2.999976880830851
aI2
aa(lp119
S'Q619'
p120
aF0.0
aF0.0
aF0.0
aF0.0
aF0.0
aF3.0
aF0.0
aF0.0
aF0.0
aF0.0
aF539.0
aF3.5306178599938374
aF3.028846149814891
aF2.1482279957885853
aF2.415584415584
aF0.458874458876
aF0.2683982683984
aF0.8455988456
aF0.005772005772
aF0.005772005772
aF0.0
aF0.0
aF0.0
aF3.999938800606568
aI2
aa(lp121
S'Q625'
p122
aF1.0
aF0.0
aF1.0
aF0.0
aF0.0
aF0.0
aF0.0
aF0.0
aF0.0
aF0.0
aF910.0
aF3.7758690930730294
aF4.018335473709574
aF0.3021922225529713
aF3.057404980338
aF2.77903014417
aF0.9931847968530003
aF2.1279161205809998
aF0.04246395806025
aF0.0
aF3.0
aF1.0
aF0.0
aF8.99950881410895
aI1
aa(lp123
S'Q627'
p124
aF0.0
aF0.0
aF0.0
aF0.0
aF0.0
aF0.0
aF0.0
aF0.0
aF0.0
aF0.0
aF85.0
aF0.44763024225996956
aF0.8032985676025323
aF0.0
aF0.339711664482
aF0.30878112713
aF0.110353866317
aF0.236435124509
aF0.00471821756225
aF0.0
aF0.0
aF0.0
aF0.0
aF0.9999235843150357
aI2
aa(lp125
S'Q643'
p126
aF0.0
aF0.0
aF0.0
aF0.0
aF0.0
aF0.0
aF0.0
aF0.0
aF0.0
aF0.0
aF144.0
aF1.9845305148863588
aF1.7079731748791205
aF0.9437868756381671
aF1.207792207792
aF0.229437229438
aF0.1341991341992
aF0.4227994228
aF0.002886002886
aF0.002886002886
aF0.0
aF0.0
aF0.0
aF1.9999757420204278
aI2
aa(lp127
S'Q652'
p128
aF0.0
aF0.0
aF0.0
aF0.0
aF0.0
aF0.0
aF0.0
aF0.0
aF2.0
aF0.0
aF243.0
aF1.762234966923727
aF3.422711077509057
aF0.8052968628924061
aF2.6138952164
aF0.632118451025
aF0.5466970387250001
aF1.17881548975
aF0.02847380410025
aF0.0
aF2.0
aF0.0
aF0.0
aF4.999796663438908
aI2
aa(lp129
S'Q667'
p130
aF1.0
aF0.0
aF3.0
aF0.0
aF0.0
aF3.0
aF5.0
aF0.0
aF0.0
aF0.0
aF6875.0
aF30.503056189009644
aF9.17853356103198
aF4.088107316188264
aF20.24797843665601
aF8.02156334231999
aF4.592991913747199
aF14.23180592990401
aF0.9056603773583999
aF0.0
aF2.0
aF11.0
aF0.0
aF47.99754503550435
aI1
aa(lp131
S'Q672'
p132
aF0.0
aF0.0
aF0.0
aF0.0
aF0.0
aF0.0
aF0.0
aF0.0
aF1.0
aF0.0
aF321.0
aF3.6642321516687497
aF4.129598525628662
aF3.275543473384656
aF2.3797468354449998
aF0.92405063291
aF0.392405063291
aF1.2911392405050002
aF0.0126582278481
aF0.0
aF1.0
aF2.0
aF0.0
aF4.999954717577556
aI2
aa(lp133
S'Q673'
p134
aF0.0
aF0.0
aF0.0
aF0.0
aF0.0
aF1.0
aF0.0
aF0.0
aF2.0
aF0.0
aF784.0
aF1.6193434170711172
aF2.653909869049836
aF1.2890461229662034
aF2.81124497992
aF0.1767068273092
aF0.465863453816
aF0.546184738956
aF0.0
aF0.0
aF1.0
aF0.0
aF0.0
aF3.9999055495001525
aI2
aa(lp135
S'Q693'
p136
aF3.0
aF0.0
aF0.0
aF0.0
aF0.0
aF5.0
aF1.0
aF2.0
aF1.0
aF0.0
aF1993.0
aF9.68350483171518
aF8.141157066122886
aF0.4900731528941763
aF15.650277008319009
aF3.4778393351819985
aF2.6551246537395015
aF5.198060941820999
aF0.018698060941820995
aF0.0
aF0.0
aF2.0
aF0.0
aF26.997509383622496
aI2
aa(lp137
S'Q757'
p138
aF3.0
aF0.0
aF1.0
aF0.0
aF0.0
aF1.0
aF0.0
aF0.0
aF1.0
aF0.0
aF1834.0
aF9.515928562788032
aF5.786242487866944
aF1.4282730333039952
aF6.79612756264
aF1.643507972665
aF1.4214123006850006
aF3.0649202733500003
aF0.07403189066065
aF0.0
aF4.0
aF2.0
aF1.0
aF12.999782163014801
aI2
aa(lp139
S'Q764'
p140
aF0.0
aF0.0
aF0.0
aF0.0
aF0.0
aF0.0
aF0.0
aF0.0
aF0.0
aF0.0
aF104.0
aF0.42550014904773586
aF0.9796362078057684
aF0.5394452009192547
aF1.255707762558
aF0.1917808219178
aF0.223744292238
aF0.31506849315
aF0.01369863013698
aF0.0
aF0.0
aF0.0
aF0.0
aF1.999940358993734
aI2
aa(lp141
S'Q768'
p142
aF0.0
aF0.0
aF0.0
aF0.0
aF0.0
aF0.0
aF0.0
aF0.0
aF0.0
aF0.0
aF356.0
aF6.135458900346515
aF4.32785317160015
aF5.035462272311305
aF3.482587064677
aF0.5746268656716
aF0.9577114427859998
aF1.985074626864
aF0.0
aF0.0
aF0.0
aF0.0
aF0.0
aF6.999635834463329
aI1
aa(lp143
S'Q773'
p144
aF0.0
aF0.0
aF0.0
aF0.0
aF0.0
aF1.0
aF0.0
aF0.0
aF1.0
aF0.0
aF368.0
aF2.743395847865225
aF2.3718047887670135
aF2.2635965706900336
aF2.205128205128
aF0.2051282051284
aF0.615384615384
aF0.97435897436
aF0.0
aF0.0
aF1.0
aF0.0
aF0.0
aF3.9999281508290467
aI1
aa(lp145
S'Q803'
p146
aF0.0
aF0.0
aF1.0
aF0.0
aF0.0
aF0.0
aF0.0
aF1.0
aF0.0
aF0.0
aF438.0
aF1.8084530275132429
aF1.5411267044702466
aF0.7310933181656023
aF1.255707762558
aF0.1917808219178
aF0.223744292238
aF0.31506849315
aF0.01369863013698
aF0.0
aF0.0
aF0.0
aF0.0
aF1.9999755903518044
aI0
aa(lp147
S'Q820'
p148
aF3.0
aF0.0
aF2.0
aF0.0
aF0.0
aF2.0
aF0.0
aF1.0
aF2.0
aF0.0
aF3971.0
aF19.852731913576715
aF14.815387124662848
aF4.603790573138072
aF20.24797843665601
aF8.02156334231999
aF4.592991913747199
aF14.23180592990401
aF0.9056603773583999
aF0.0
aF2.0
aF1.0
aF0.0
aF56.94125921581929
aI2
aa(lp149
S'Q874'
p150
aF2.0
aF0.0
aF2.0
aF0.0
aF0.0
aF0.0
aF0.0
aF0.0
aF2.0
aF0.0
aF384.0
aF3.6787464461065453
aF3.701522954609917
aF1.6167039079682837
aF4.227272727272
aF0.803030303033
aF0.4696969696971999
aF1.4797979797999998
aF0.010101010101
aF0.010101010101
aF1.0
aF0.0
aF0.0
aF6.999825898464922
aI0
aa(lp151
S'Q877'
p152
aF0.0
aF0.0
aF0.0
aF0.0
aF0.0
aF0.0
aF0.0
aF0.0
aF0.0
aF0.0
aF29.0
aF0.7741837282796284
aF0.6896111008359268
aF0.5241424183609592
aF0.603896103896
aF0.114718614719
aF0.0670995670996
aF0.2113997114
aF0.001443001443
aF0.001443001443
aF0.0
aF0.0
aF0.0
aF0.9999804805651419
aI1
aa(lp153
S'Q878'
p154
aF1.0
aF0.0
aF0.0
aF0.0
aF0.0
aF0.0
aF0.0
aF0.0
aF0.0
aF0.0
aF332.0
aF2.387638811894118
aF1.2658789725061705
aF1.2687953374494398
aF1.265498652291
aF0.501347708895
aF0.2870619946092
aF0.889487870619
aF0.0566037735849
aF0.0
aF0.0
aF0.0
aF0.0
aF2.999938260989307
aI0
aa(lp155
S'Q886'
p156
aF0.0
aF0.0
aF0.0
aF0.0
aF0.0
aF0.0
aF0.0
aF0.0
aF1.0
aF0.0
aF174.0
aF1.7718860549800972
aF0.740072688413107
aF0.40394273814158543
aF1.358846657928
aF1.23512450852
aF0.441415465268
aF0.945740498036
aF0.018872870249
aF0.0
aF1.0
aF1.0
aF1.0
aF3.9998205527238744
aI2
aa(lp157
S'Q890'
p158
aF3.0
aF0.0
aF0.0
aF0.0
aF0.0
aF0.0
aF0.0
aF0.0
aF2.0
aF0.0
aF887.0
aF6.517983154807049
aF8.579570755911696
aF5.8052309979248555
aF5.650684931511
aF0.8630136986301
aF1.006849315071
aF1.417808219175
aF0.06164383561641
aF0.0
aF1.0
aF0.0
aF0.0
aF8.999889088206036
aI2
aa(lp159
S'Q907'
p160
aF0.0
aF0.0
aF0.0
aF0.0
aF0.0
aF0.0
aF0.0
aF0.0
aF0.0
aF0.0
aF408.0
aF5.988891815626516
aF5.360078890667374
aF4.274698623638622
aF3.623376623376
aF0.688311688314
aF0.4025974025975999
aF1.2683982684
aF0.008658008658
aF0.008658008658
aF0.0
aF0.0
aF0.0
aF5.999962947970782
aI1
aa(lp161
S'Q924'
p162
aF2.0
aF0.0
aF0.0
aF0.0
aF0.0
aF0.0
aF0.0
aF0.0
aF0.0
aF0.0
aF12.0
aF0.1141456534730084
aF0.8320683958219852
aF0.1556997888323046
aF0.603896103896
aF0.114718614719
aF0.0670995670996
aF0.2113997114
aF0.001443001443
aF0.001443001443
aF0.0
aF0.0
aF0.0
aF0.9999602716223651
aI0
aa(lp163
S'Q933'
p164
aF0.0
aF0.0
aF0.0
aF0.0
aF0.0
aF0.0
aF0.0
aF0.0
aF0.0
aF0.0
aF100.0
aF1.4109259770858777
aF1.8487649591379407
aF1.1969114423648406
aF1.255707762558
aF0.1917808219178
aF0.223744292238
aF0.31506849315
aF0.01369863013698
aF0.0
aF0.0
aF0.0
aF0.0
aF1.9999653700498905
aI2
aa(lp165
S'Q947'
p166
aF2.0
aF0.0
aF0.0
aF0.0
aF0.0
aF2.0
aF0.0
aF1.0
aF0.0
aF0.0
aF3062.0
aF8.25284832954582
aF9.323681080193904
aF1.3053423566243956
aF6.509293680301
aF3.855018587369
aF1.1375464684021
aF5.498141263933
aF0.0
aF0.0
aF0.0
aF0.0
aF0.0
aF16.99937010094297
aI0
aa(lp167
S'Q964'
p168
aF0.0
aF0.0
aF0.0
aF0.0
aF0.0
aF0.0
aF0.0
aF0.0
aF1.0
aF0.0
aF89.0
aF1.230821878492562
aF2.8750275091288247
aF1.0302567583920093
aF2.235059760957
aF0.09561752988060002
aF0.334661354583
aF0.334661354583
aF0.0
aF0.0
aF1.0
aF0.0
aF0.0
aF2.9999306219350945
aI2
aa(lp169
S'Q986'
p170
aF0.0
aF0.0
aF0.0
aF0.0
aF0.0
aF0.0
aF0.0
aF0.0
aF0.0
aF0.0
aF12.0
aF0.8175137813421879
aF0.5490279694473664
aF0.49999999999999994
aF0.658711217184
aF0.0787589498807
aF0.119331742243
aF0.143198090692
aF0.0
aF0.0
aF0.0
aF0.0
aF0.0
aF0.9999586083123461
aI1
aa(lp171
S'Q988'
p172
aF1.0
aF0.0
aF0.0
aF0.0
aF0.0
aF0.0
aF0.0
aF0.0
aF0.0
aF0.0
aF188.0
aF2.9521433877040106
aF2.8523689488732415
aF2.4338291154359135
aF1.811688311688
aF0.34415584415699996
aF0.20129870129879998
aF0.6341991342
aF0.004329004329
aF0.004329004329
aF0.0
aF0.0
aF0.0
aF2.9999644156858363
aI1
aa(lp173
S'Q1006'
p174
aF0.0
aF0.0
aF0.0
aF0.0
aF0.0
aF0.0
aF0.0
aF0.0
aF0.0
aF0.0
aF229.0
aF3.999867160204798
aF2.788687299731101
aF2.9601810740910564
aF2.415584415584
aF0.458874458876
aF0.2683982683984
aF0.8455988456
aF0.005772005772
aF0.005772005772
aF0.0
aF0.0
aF0.0
aF3.999962585259182
aI1
aa(lp175
S'Q1038'
p176
aF0.0
aF0.0
aF0.0
aF0.0
aF0.0
aF0.0
aF0.0
aF0.0
aF1.0
aF0.0
aF225.0
aF2.9615803696868115
aF1.9871553256072665
aF0.6176909928872072
aF2.415584415584
aF0.458874458876
aF0.2683982683984
aF0.8455988456
aF0.005772005772
aF0.005772005772
aF0.0
aF0.0
aF0.0
aF3.999848616771522
aI0
aa(lp177
S'Q1040'
p178
aF2.0
aF0.0
aF1.0
aF0.0
aF0.0
aF0.0
aF0.0
aF0.0
aF0.0
aF0.0
aF470.0
aF2.397772317727144
aF2.781792286489428
aF1.9317804913570773
aF2.09111617312
aF0.50569476082
aF0.43735763098
aF0.9430523918
aF0.0227790432802
aF0.0
aF0.0
aF1.0
aF0.0
aF3.999939751510275
aI0
aa(lp179
S'Q1066'
p180
aF0.0
aF0.0
aF0.0
aF0.0
aF0.0
aF0.0
aF0.0
aF0.0
aF0.0
aF0.0
aF53.0
aF0.8898643719419117
aF0.9752872239281551
aF0.7318040653635676
aF0.627853881279
aF0.0958904109589
aF0.111872146119
aF0.157534246575
aF0.00684931506849
aF0.0
aF0.0
aF0.0
aF0.0
aF0.9999942424900528
aI1
aa(lp181
S'Q1069'
p182
aF0.0
aF0.0
aF2.0
aF0.0
aF0.0
aF0.0
aF0.0
aF0.0
aF2.0
aF0.0
aF849.0
aF2.0343692808175344
aF2.3594254691034675
aF0.7985308913713556
aF3.13667425968
aF0.75854214123
aF0.6560364464700001
aF1.4145785877000001
aF0.0341685649203
aF0.0
aF1.0
aF1.0
aF0.0
aF5.999805066310535
aI2
aa(lp183
S'Q1074'
p184
aF0.0
aF0.0
aF0.0
aF0.0
aF0.0
aF0.0
aF0.0
aF0.0
aF0.0
aF0.0
aF248.0
aF1.7017403876834682
aF1.0173714840525663
aF0.13130643285972254
aF2.3797468354449998
aF0.92405063291
aF0.392405063291
aF1.2911392405050002
aF0.0126582278481
aF0.0
aF0.0
aF0.0
aF0.0
aF4.999058923252885
aI2
aa(lp185
S'Q1075'
p186
aF1.0
aF0.0
aF0.0
aF0.0
aF0.0
aF0.0
aF0.0
aF0.0
aF0.0
aF0.0
aF786.0
aF4.004173007007376
aF2.2171655310770695
aF0.7947077031211187
aF6.642857142856
aF1.261904761909
aF0.7380952380955997
aF2.3253968253999995
aF0.015873015873000003
aF0.015873015873000003
aF2.0
aF0.0
aF0.0
aF10.998719750638347
aI2
aa(lp187
S'Q1086'
p188
aF0.0
aF0.0
aF1.0
aF0.0
aF0.0
aF0.0
aF0.0
aF0.0
aF0.0
aF0.0
aF322.0
aF1.2994459451238263
aF0.8397873718621263
aF0.4290200576705935
aF1.265498652291
aF0.501347708895
aF0.2870619946092
aF0.889487870619
aF0.0566037735849
aF0.0
aF0.0
aF2.0
aF0.0
aF2.999942709618223
aI2
aa(lp189
S'Q1101'
p190
aF1.0
aF0.0
aF0.0
aF0.0
aF0.0
aF0.0
aF0.0
aF0.0
aF0.0
aF0.0
aF613.0
aF2.8986843098405903
aF2.281202211129431
aF1.6584705247626337
aF2.511415525116
aF0.3835616438356
aF0.447488584476
aF0.6301369863
aF0.02739726027396
aF0.0
aF0.0
aF0.0
aF0.0
aF3.9999533896192707
aI0
aa(lp191
S'Q1106'
p192
aF1.0
aF0.0
aF0.0
aF0.0
aF0.0
aF0.0
aF0.0
aF0.0
aF0.0
aF0.0
aF749.0
aF2.6432078994325146
aF2.507712146712777
aF1.6106780154737659
aF1.9761336515520003
aF0.2362768496421
aF0.35799522672899997
aF0.42959427207600004
aF0.0
aF0.0
aF0.0
aF0.0
aF0.0
aF2.9999805604534013
aI0
aa(lp193
S'Q1107'
p194
aF2.0
aF0.0
aF2.0
aF0.0
aF0.0
aF0.0
aF0.0
aF0.0
aF0.0
aF0.0
aF575.0
aF3.02512617320387
aF4.689603785763877
aF0.778158004183644
aF2.530997304582
aF1.00269541779
aF0.5741239892183999
aF1.7789757412380003
aF0.11320754716979999
aF0.0
aF1.0
aF2.0
aF0.0
aF5.999806583406778
aI2
aa(lp195
S'Q1128'
p196
aF0.0
aF0.0
aF0.0
aF0.0
aF0.0
aF0.0
aF1.0
aF0.0
aF0.0
aF0.0
aF501.0
aF4.8124743687839056
aF1.9884685757060971
aF1.8755281143011229
aF3.01948051948
aF0.573593073595
aF0.33549783549799994
aF1.056998557
aF0.007215007214999999
aF0.007215007214999999
aF1.0
aF0.0
aF0.0
aF4.9999099623912056
aI0
aa(lp197
S'Q1138'
p198
aF0.0
aF0.0
aF0.0
aF0.0
aF0.0
aF0.0
aF2.0
aF0.0
aF0.0
aF0.0
aF240.0
aF1.2949606409849586
aF1.298768184073036
aF0.19041611002972214
aF1.358846657928
aF1.23512450852
aF0.441415465268
aF0.945740498036
aF0.018872870249
aF0.0
aF1.0
aF0.0
aF0.0
aF3.9992684783343426
aI2
aa(lp199
S'Q1147'
p200
aF0.0
aF0.0
aF0.0
aF0.0
aF0.0
aF0.0
aF0.0
aF0.0
aF0.0
aF0.0
aF82.0
aF0.5688108124168731
aF0.02754768404995023
aF0.20801257358446093
aF0.65625
aF0.0364583333333
aF0.166666666667
aF0.140625
aF0.0
aF0.0
aF0.0
aF0.0
aF0.0
aF0.9999384779436323
aI2
aa(lp201
S'Q1157'
p202
aF0.0
aF0.0
aF1.0
aF0.0
aF0.0
aF0.0
aF0.0
aF0.0
aF1.0
aF0.0
aF587.0
aF4.707556035970416
aF3.9019478856494496
aF1.0029806341219896
aF3.807594936712
aF1.4784810126559997
aF0.6278481012656
aF2.065822784808
aF0.02025316455696
aF0.0
aF2.0
aF0.0
aF0.0
aF7.99964906705471
aI2
aa(lp203
S'Q1170'
p204
aF2.0
aF0.0
aF0.0
aF0.0
aF0.0
aF0.0
aF0.0
aF0.0
aF0.0
aF0.0
aF550.0
aF6.324449264832635
aF2.111547825703079
aF1.1208487013685635
aF3.057404980338
aF2.77903014417
aF0.9931847968530003
aF2.1279161205809998
aF0.04246395806025
aF0.0
aF3.0
aF0.0
aF0.0
aF8.998547619768102
aI0
aa(lp205
S'Q1171'
p206
aF0.0
aF0.0
aF0.0
aF0.0
aF0.0
aF0.0
aF0.0
aF0.0
aF0.0
aF0.0
aF985.0
aF5.13605438518472
aF5.677267260366067
aF0.15521790662956303
aF2.717693315856
aF2.47024901704
aF0.8828309305360003
aF1.8914809960719998
aF0.037745740498
aF0.0
aF2.0
aF0.0
aF0.0
aF7.999312960667068
aI0
aa(lp207
S'Q1174'
p208
aF0.0
aF0.0
aF0.0
aF0.0
aF0.0
aF1.0
aF0.0
aF0.0
aF0.0
aF0.0
aF55.0
aF0.3348379192416166
aF0.11871722869384009
aF0.08838834764831843
aF0.339711664482
aF0.30878112713
aF0.110353866317
aF0.236435124509
aF0.00471821756225
aF0.0
aF1.0
aF0.0
aF0.0
aF0.9999627521905977
aI2
aa(lp209
S'Q1180'
p210
aF0.0
aF0.0
aF0.0
aF0.0
aF0.0
aF0.0
aF0.0
aF0.0
aF0.0
aF0.0
aF21.0
aF0.24617031825671212
aF0.80694944398477
aF0.0
aF0.341395348837
aF0.262325581395
aF0.0986046511628
aF0.29488372093
aF0.00279069767442
aF0.0
aF0.0
aF0.0
aF0.0
aF0.9990895912446567
aI0
aa(lp211
S'Q1185'
p212
aF3.0
aF0.0
aF0.0
aF0.0
aF0.0
aF0.0
aF0.0
aF0.0
aF0.0
aF0.0
aF269.0
aF6.444396480556527
aF3.5171980288321496
aF4.831499455868134
aF3.3746630727759994
aF1.33692722372
aF0.7654986522911998
aF2.3719676549840005
aF0.1509433962264
aF0.0
aF0.0
aF0.0
aF0.0
aF7.999709503191578
aI0
aa(lp213
S'Q1208'
p214
aF2.0
aF0.0
aF0.0
aF0.0
aF0.0
aF0.0
aF0.0
aF0.0
aF1.0
aF0.0
aF558.0
aF5.573124061558221
aF3.0903293275270167
aF0.7212978073138335
aF3.623376623376
aF0.688311688314
aF0.4025974025975999
aF1.2683982684
aF0.008658008658
aF0.008658008658
aF0.0
aF0.0
aF0.0
aF5.999858585640709
aI1
aa(lp215
S'Q1223'
p216
aF0.0
aF0.0
aF1.0
aF0.0
aF0.0
aF0.0
aF0.0
aF0.0
aF0.0
aF0.0
aF231.0
aF0.9912602707266791
aF0.817817134242303
aF0.49923017660270624
aF0.48275862069
aF0.051724137931
aF0.114942528736
aF0.344827586207
aF0.0
aF0.00574712643678
aF0.0
aF0.0
aF0.0
aF0.9999942150781528
aI1
aa(lp217
S'Q1230'
p218
aF0.0
aF0.0
aF2.0
aF0.0
aF0.0
aF0.0
aF0.0
aF1.0
aF1.0
aF0.0
aF1123.0
aF1.6414391047477945
aF1.8971067389623035
aF0.35043549337661584
aF1.9889298893
aF0.741697416976
aF0.39852398524
aF0.856088560884
aF0.01476014760148
aF0.0
aF1.0
aF0.0
aF1.0
aF3.9996997141056694
aI0
aa(lp219
S'Q1234'
p220
aF0.0
aF0.0
aF0.0
aF0.0
aF0.0
aF3.0
aF0.0
aF2.0
aF0.0
aF0.0
aF595.0
aF5.222269942088782
aF5.861110320870529
aF2.382101948881061
aF4.394977168953
aF0.6712328767122999
aF0.783105022833
aF1.102739726025
aF0.04794520547943
aF0.0
aF0.0
aF0.0
aF0.0
aF6.999929165368265
aI2
aa(lp221
S'Q1239'
p222
aF5.0
aF0.0
aF0.0
aF0.0
aF0.0
aF1.0
aF1.0
aF1.0
aF0.0
aF0.0
aF2097.0
aF16.22664028109044
aF14.51133173079486
aF13.41211664688165
aF9.944649446500001
aF3.708487084880001
aF1.9926199261999993
aF4.280442804420001
aF0.0738007380074
aF0.0
aF8.0
aF0.0
aF0.0
aF19.99950185326178
aI0
aa(lp223
S'Q1260'
p224
aF0.0
aF0.0
aF0.0
aF0.0
aF0.0
aF0.0
aF0.0
aF0.0
aF0.0
aF0.0
aF415.0
aF3.7384190475631947
aF3.914120138102573
aF2.213534271519906
aF2.415584415584
aF0.458874458876
aF0.2683982683984
aF0.8455988456
aF0.005772005772
aF0.005772005772
aF0.0
aF1.0
aF0.0
aF3.999962843404718
aI1
aa(lp225
S'Q1292'
p226
aF4.0
aF0.0
aF0.0
aF0.0
aF0.0
aF0.0
aF0.0
aF1.0
aF0.0
aF0.0
aF338.0
aF2.924967852164974
aF1.4033114785004694
aF1.1607281896372696
aF3.623376623376
aF0.688311688314
aF0.4025974025975999
aF1.2683982684
aF0.008658008658
aF0.008658008658
aF0.0
aF0.0
aF0.0
aF14.999757617140782
aI0
aa(lp227
S'Q1321'
p228
aF4.0
aF0.0
aF0.0
aF0.0
aF0.0
aF2.0
aF0.0
aF0.0
aF0.0
aF0.0
aF1103.0
aF9.492141041734877
aF6.385393624135277
aF5.187254530190815
aF6.642857142856
aF1.261904761909
aF0.7380952380955997
aF2.3253968253999995
aF0.015873015873000003
aF0.015873015873000003
aF0.0
aF0.0
aF0.0
aF10.999719787498128
aI0
aa(lp229
S'Q1323'
p230
aF2.0
aF0.0
aF0.0
aF0.0
aF0.0
aF0.0
aF0.0
aF0.0
aF0.0
aF0.0
aF250.0
aF3.2120997711256747
aF1.119435847675245
aF0.517022881534537
aF2.109164420485
aF0.835579514825
aF0.47843665768199994
aF1.4824797843650002
aF0.09433962264149999
aF0.0
aF0.0
aF0.0
aF0.0
aF4.998749722651993
aI2
aa(lp231
S'Q1328'
p232
aF0.0
aF0.0
aF0.0
aF0.0
aF0.0
aF0.0
aF0.0
aF0.0
aF0.0
aF0.0
aF251.0
aF2.0374165120144583
aF2.1430147574687113
aF0.9253807959569226
aF1.687331536388
aF0.66846361186
aF0.3827493261456
aF1.185983827492
aF0.0754716981132
aF0.0
aF2.0
aF0.0
aF0.0
aF3.999904926751528
aI0
aa(lp233
S'Q1329'
p234
aF0.0
aF0.0
aF0.0
aF0.0
aF0.0
aF2.0
aF0.0
aF0.0
aF0.0
aF0.0
aF252.0
aF3.19077494373224
aF1.824493240804695
aF1.7917933696265393
aF2.634844868736
aF0.3150357995228
aF0.477326968972
aF0.572792362768
aF0.0
aF0.0
aF0.0
aF0.0
aF0.0
aF3.9999447444773257
aI1
aa(lp235
S'Q1330'
p236
aF0.0
aF0.0
aF0.0
aF0.0
aF0.0
aF0.0
aF0.0
aF0.0
aF0.0
aF0.0
aF22.0
aF0.07815772739471497
aF0.17308515126969562
aF0.16116459280507603
aF0.339711664482
aF0.30878112713
aF0.110353866317
aF0.236435124509
aF0.00471821756225
aF0.0
aF0.0
aF0.0
aF0.0
aF0.9999530827067445
aI2
aa(lp237
S'Q1341'
p238
aF0.0
aF0.0
aF0.0
aF0.0
aF0.0
aF0.0
aF0.0
aF0.0
aF0.0
aF0.0
aF0.0
aF0.3846267596552686
aF0.7207061450943592
aF1e-05
aF0.497232472325
aF0.185424354244
aF0.09963099631
aF0.214022140221
aF0.00369003690037
aF0.0
aF0.0
aF0.0
aF0.0
aF10.0
aI2
aa(lp239
S'Q1344'
p240
aF0.0
aF0.0
aF0.0
aF0.0
aF0.0
aF0.0
aF0.0
aF0.0
aF0.0
aF0.0
aF95.0
aF1.5268069191972775
aF1.9975893634916295
aF0.9297469798758027
aF1.763598326361
aF0.31380753138
aF0.244769874477
aF0.671548117155
aF0.0062761506276299995
aF0.0
aF0.0
aF0.0
aF0.0
aF2.9997249490534785
aI2
aa(lp241
S'Q1347'
p242
aF0.0
aF0.0
aF1.0
aF0.0
aF0.0
aF1.0
aF0.0
aF1.0
aF0.0
aF0.0
aF1746.0
aF4.779638172011228
aF4.2423234155494445
aF1.583597591509276
aF2.530997304582
aF1.00269541779
aF0.5741239892183999
aF1.7789757412380003
aF0.11320754716979999
aF0.0
aF1.0
aF0.0
aF0.0
aF5.9999071575560565
aI1
aa(lp243
S'Q1352'
p244
aF1.0
aF0.0
aF0.0
aF0.0
aF0.0
aF0.0
aF0.0
aF0.0
aF0.0
aF0.0
aF126.0
aF1.0493834480828403
aF1.7227393429290405
aF0.7653550096995907
aF1.04555808656
aF0.25284738041
aF0.21867881549
aF0.4715261959
aF0.0113895216401
aF0.0
aF0.0
aF0.0
aF0.0
aF1.9999766037912816
aI0
aa(lp245
S'Q1357'
p246
aF0.0
aF0.0
aF0.0
aF0.0
aF0.0
aF0.0
aF0.0
aF0.0
aF0.0
aF0.0
aF22.0
aF0.3646975497920318
aF0.4929178412064868
aF0.0
aF0.339711664482
aF0.30878112713
aF0.110353866317
aF0.236435124509
aF0.00471821756225
aF0.0
aF0.0
aF1.0
aF0.0
aF0.9995948832193124
aI0
aa(lp247
S'Q1358'
p248
aF1.0
aF0.0
aF0.0
aF0.0
aF0.0
aF2.0
aF2.0
aF0.0
aF0.0
aF0.0
aF396.0
aF4.593953964451982
aF3.404052290544084
aF2.9088073775067027
aF4.394977168953
aF0.6712328767122999
aF0.783105022833
aF1.102739726025
aF0.04794520547943
aF0.0
aF2.0
aF0.0
aF0.0
aF6.999787830779406
aI0
aa(lp249
S'Q1364'
p250
aF0.0
aF0.0
aF0.0
aF0.0
aF0.0
aF0.0
aF0.0
aF1.0
aF0.0
aF0.0
aF117.0
aF2.5445650150874046
aF0.9435951402545744
aF1.099886609507373
aF1.687331536388
aF0.66846361186
aF0.3827493261456
aF1.185983827492
aF0.0754716981132
aF0.0
aF1.0
aF0.0
aF0.0
aF3.999719506885972
aI0
aa(lp251
S'Q1374'
p252
aF0.0
aF0.0
aF0.0
aF0.0
aF0.0
aF0.0
aF0.0
aF0.0
aF0.0
aF0.0
aF304.0
aF4.464046210372842
aF3.229502652718285
aF3.416878455413794
aF2.6138952164
aF0.632118451025
aF0.5466970387250001
aF1.17881548975
aF0.02847380410025
aF0.0
aF1.0
aF0.0
aF0.0
aF4.999853123778005
aI2
aa(lp253
S'Q1387'
p254
aF2.0
aF0.0
aF3.0
aF0.0
aF0.0
aF1.0
aF0.0
aF0.0
aF0.0
aF0.0
aF1305.0
aF5.483531935262662
aF5.960435688031704
aF0.6049637512625563
aF6.114809960676003
aF5.558060288339998
aF1.9863695937060009
aF4.255832241162
aF0.08492791612049999
aF0.0
aF1.0
aF0.0
aF0.0
aF26.991121753184956
aI2
aa(lp255
S'Q1392'
p256
aF2.0
aF0.0
aF0.0
aF0.0
aF0.0
aF0.0
aF0.0
aF0.0
aF0.0
aF0.0
aF2621.0
aF12.527448748565941
aF13.225889579397638
aF2.7860220032226355
aF7.133944954122004
aF6.484403669729997
aF2.3174311926570006
aF4.965137614689
aF0.09908256880724997
aF0.0
aF4.0
aF0.0
aF0.0
aF20.999120951809175
aI0
aa(lp257
S'Q1431'
p258
aF1.0
aF0.0
aF0.0
aF0.0
aF0.0
aF0.0
aF0.0
aF0.0
aF0.0
aF0.0
aF77.0
aF1.5337508174491026
aF1.6474055383457809
aF0.8119970505351971
aF1.04555808656
aF0.25284738041
aF0.21867881549
aF0.4715261959
aF0.0113895216401
aF0.0
aF0.0
aF0.0
aF0.0
aF1.9999649232334036
aI0
aa(lp259
S'Q1434'
p260
aF0.0
aF0.0
aF0.0
aF0.0
aF0.0
aF0.0
aF0.0
aF0.0
aF0.0
aF0.0
aF110.0
aF2.529200338471554
aF2.6470194411227834
aF1.9826716458863207
aF1.4916974169750001
aF0.5562730627320001
aF0.29889298893
aF0.642066420663
aF0.011070110701110001
aF0.0
aF0.0
aF0.0
aF0.0
aF2.9999748302679268
aI1
aa(lp261
S'Q1461'
p262
aF0.0
aF0.0
aF0.0
aF0.0
aF0.0
aF0.0
aF0.0
aF0.0
aF0.0
aF0.0
aF13.0
aF0.09821519533472148
aF0.604992592688202
aF0.0
aF0.370629370629
aF0.314685314685
aF0.041958041958
aF0.265734265734
aF0.00699300699301
aF0.0
aF0.0
aF0.0
aF0.0
aF0.9997109420782918
aI2
aa(lp263
S'Q1462'
p264
aF0.0
aF0.0
aF0.0
aF0.0
aF0.0
aF1.0
aF1.0
aF2.0
aF0.0
aF0.0
aF1611.0
aF6.263655558574545
aF10.210031785033323
aF0.1924500897298753
aF5.435386631712002
aF4.940498034079999
aF1.7656618610720007
aF3.782961992144001
aF0.075491480996
aF0.0
aF0.0
aF1.0
aF0.0
aF15.997268820409404
aI1
aa(lp265
S'Q1469'
p266
aF1.0
aF0.0
aF1.0
aF0.0
aF0.0
aF0.0
aF0.0
aF0.0
aF0.0
aF0.0
aF289.0
aF5.148776914655947
aF4.222593277296001
aF4.211264841843634
aF3.767123287674
aF0.5753424657534
aF0.671232876714
aF0.9452054794500001
aF0.04109589041094
aF0.0
aF0.0
aF0.0
aF0.0
aF5.999896586329894
aI0
aa(lp267
S'Q1474'
p268
aF0.0
aF0.0
aF0.0
aF0.0
aF0.0
aF0.0
aF0.0
aF0.0
aF2.0
aF0.0
aF686.0
aF2.7823903112344004
aF5.80098477080909
aF1.3920459386309596
aF4.057479224379
aF0.901662049862
aF0.6883656509695
aF1.347645429361
aF0.004847645429361
aF0.0
aF1.0
aF0.0
aF0.0
aF6.999904046293934
aI0
aa(lp269
S'Q1490'
p270
aF0.0
aF0.0
aF0.0
aF0.0
aF0.0
aF0.0
aF0.0
aF0.0
aF0.0
aF0.0
aF82.0
aF0.9456921561143798
aF1.5688753890104818
aF0.0
aF0.682790697674
aF0.52465116279
aF0.1972093023256
aF0.58976744186
aF0.00558139534884
aF0.0
aF0.0
aF2.0
aF0.0
aF1.9996273460068033
aI2
aa(lp271
S'Q1513'
p272
aF0.0
aF0.0
aF0.0
aF0.0
aF0.0
aF0.0
aF0.0
aF0.0
aF0.0
aF0.0
aF22.0
aF0.8673122307495171
aF0.9193398644460166
aF0.5833333333333334
aF0.52277904328
aF0.126423690205
aF0.109339407745
aF0.23576309795
aF0.00569476082005
aF0.0
aF0.0
aF0.0
aF0.0
aF0.9999840928305607
aI2
aa(lp273
S'Q1519'
p274
aF0.0
aF0.0
aF0.0
aF0.0
aF0.0
aF0.0
aF0.0
aF0.0
aF1.0
aF0.0
aF310.0
aF2.5147616184807466
aF1.8995219953296665
aF1.4265852321014567
aF1.811688311688
aF0.34415584415699996
aF0.20129870129879998
aF0.6341991342
aF0.004329004329
aF0.004329004329
aF1.0
aF0.0
aF0.0
aF2.9999513488002476
aI2
aa(lp275
S'Q1532'
p276
aF0.0
aF0.0
aF0.0
aF0.0
aF0.0
aF0.0
aF0.0
aF0.0
aF0.0
aF0.0
aF510.0
aF3.759254340468222
aF2.4388953681535877
aF1.7904277870235639
aF2.415584415584
aF0.458874458876
aF0.2683982683984
aF0.8455988456
aF0.005772005772
aF0.005772005772
aF0.0
aF0.0
aF0.0
aF3.999966922192026
aI1
aa(lp277
S'Q1545'
p278
aF0.0
aF0.0
aF0.0
aF0.0
aF0.0
aF0.0
aF0.0
aF0.0
aF1.0
aF0.0
aF83.0
aF1.2231414133400973
aF0.8476153888907934
aF0.3118047822311618
aF0.682790697674
aF0.52465116279
aF0.1972093023256
aF0.58976744186
aF0.00558139534884
aF0.0
aF1.0
aF1.0
aF0.0
aF1.999894345836738
aI0
aa(lp279
S'Q1560'
p280
aF0.0
aF0.0
aF0.0
aF0.0
aF0.0
aF0.0
aF0.0
aF0.0
aF0.0
aF0.0
aF291.0
aF2.931257775505527
aF3.2295177821093564
aF1.20261355082503
aF3.331645569623
aF1.2936708860739998
aF0.5493670886074
aF1.8075949367070003
aF0.01772151898734
aF0.0
aF0.0
aF0.0
aF0.0
aF15.99950691674665
aI2
aa(lp281
S'Q1571'
p282
aF0.0
aF0.0
aF0.0
aF0.0
aF0.0
aF0.0
aF0.0
aF0.0
aF0.0
aF0.0
aF40.0
aF0.8942637320082197
aF0.6617316354983408
aF0.06788442333021306
aF0.339711664482
aF0.30878112713
aF0.110353866317
aF0.236435124509
aF0.00471821756225
aF0.0
aF1.0
aF1.0
aF0.0
aF0.9997701997691423
aI0
aa(lp283
S'Q1580'
p284
aF0.0
aF0.0
aF0.0
aF0.0
aF0.0
aF0.0
aF0.0
aF0.0
aF0.0
aF0.0
aF91.0
aF1.5462984261263617
aF0.382118625160044
aF0.0
aF1.207792207792
aF0.229437229438
aF0.1341991341992
aF0.4227994228
aF0.002886002886
aF0.002886002886
aF0.0
aF0.0
aF0.0
aF1.9999488312988078
aI0
aa(lp285
S'Q1582'
p286
aF1.0
aF0.0
aF0.0
aF0.0
aF0.0
aF0.0
aF0.0
aF0.0
aF0.0
aF0.0
aF17.0
aF0.20595320129989625
aF1.6460374486948295
aF0.8944271909999159
aF1.159279778394
aF0.257617728532
aF0.196675900277
aF0.385041551246
aF0.001385041551246
aF0.0
aF1.0
aF0.0
aF0.0
aF1.9998527810706106
aI0
aa(lp287
S'Q1607'
p288
aF2.0
aF0.0
aF2.0
aF0.0
aF1.0
aF8.0
aF7.0
aF2.0
aF3.0
aF0.0
aF5978.0
aF18.107518742750727
aF17.900030277539972
aF2.978282999908138
aF13.425276752775007
aF5.006457564588
aF2.6900369003700004
aF5.778597785967001
aF0.09963099630998996
aF0.0
aF0.0
aF2.0
aF0.0
aF26.99946446025477
aI2
aa(lp289
S'Q1621'
p290
aF0.0
aF0.0
aF0.0
aF0.0
aF0.0
aF0.0
aF0.0
aF0.0
aF0.0
aF0.0
aF301.0
aF2.259140689218982
aF1.6764871151086527
aF0.5103805769889764
aF1.9889298893
aF0.741697416976
aF0.39852398524
aF0.856088560884
aF0.01476014760148
aF0.0
aF1.0
aF1.0
aF0.0
aF3.998918487286403
aI2
aa(lp291
S'Q1622'
p292
aF0.0
aF0.0
aF0.0
aF0.0
aF0.0
aF0.0
aF0.0
aF1.0
aF0.0
aF0.0
aF269.0
aF2.8367974880961397
aF1.9325335528344214
aF0.9667388666339438
aF1.811688311688
aF0.34415584415699996
aF0.20129870129879998
aF0.6341991342
aF0.004329004329
aF0.004329004329
aF0.0
aF0.0
aF0.0
aF2.9999437177659694
aI2
aa(lp293
S'Q1629'
p294
aF1.0
aF0.0
aF0.0
aF0.0
aF0.0
aF0.0
aF0.0
aF0.0
aF0.0
aF0.0
aF190.0
aF2.898619792241104
aF2.7000273425550656
aF2.4423880056006055
aF1.811688311688
aF0.34415584415699996
aF0.20129870129879998
aF0.6341991342
aF0.004329004329
aF0.004329004329
aF0.0
aF0.0
aF0.0
aF2.9999876137156685
aI0
aa(lp295
S'Q1666'
p296
aF0.0
aF0.0
aF1.0
aF0.0
aF0.0
aF0.0
aF0.0
aF0.0
aF0.0
aF0.0
aF187.0
aF1.9563657436062525
aF1.889260790405041
aF1.1224972160321824
aF1.175732217574
aF0.20920502092
aF0.163179916318
aF0.44769874477
aF0.00418410041842
aF0.0
aF0.0
aF0.0
aF0.0
aF1.999968319041606
aI2
aa(lp297
S'Q1677'
p298
aF1.0
aF0.0
aF0.0
aF0.0
aF0.0
aF0.0
aF0.0
aF0.0
aF0.0
aF0.0
aF1051.0
aF3.5533128497005513
aF3.6955464468683177
aF1.315412136977964
aF2.634844868736
aF0.3150357995228
aF0.477326968972
aF0.572792362768
aF0.0
aF0.0
aF0.0
aF0.0
aF0.0
aF3.9999589568967435
aI0
aa(lp299
S'Q1702'
p300
aF0.0
aF0.0
aF0.0
aF0.0
aF0.0
aF0.0
aF0.0
aF0.0
aF0.0
aF0.0
aF498.0
aF4.788917786506454
aF4.0601943331859305
aF3.2334243045688624
aF3.5140562249
aF0.22088353413650003
aF0.5823293172699999
aF0.6827309236949999
aF0.0
aF0.0
aF0.0
aF0.0
aF0.0
aF4.999968418768917
aI1
aa(lp301
S'Q1704'
p302
aF3.0
aF0.0
aF0.0
aF0.0
aF0.0
aF0.0
aF0.0
aF0.0
aF0.0
aF0.0
aF206.0
aF2.899672212434162
aF4.484377209470032
aF3.9042224732702264
aF3.139269406395
aF0.4794520547945
aF0.559360730595
aF0.7876712328750001
aF0.03424657534245
aF0.0
aF0.0
aF0.0
aF0.0
aF4.9998717934526535
aI0
aa(lp303
S'Q1735'
p304
aF13.0
aF0.0
aF2.0
aF0.0
aF0.0
aF0.0
aF3.0
aF0.0
aF0.0
aF0.0
aF1119.0
aF19.142106859237977
aF24.746077794690628
aF4.004329892885532
aF16.985583224099994
aF15.439056356500007
aF5.517693315850002
aF11.821756225450006
aF0.23591087811249978
aF0.0
aF16.0
aF2.0
aF0.0
aF112.95744446979285
aI0
aa(lp305
S'Q1770'
p306
aF0.0
aF0.0
aF0.0
aF0.0
aF0.0
aF0.0
aF0.0
aF0.0
aF0.0
aF0.0
aF222.0
aF2.43892534336983
aF3.022268438732283
aF2.1723564066018524
aF2.511415525116
aF0.3835616438356
aF0.447488584476
aF0.6301369863
aF0.02739726027396
aF0.0
aF0.0
aF0.0
aF0.0
aF3.9999504176958522
aI1
aa(lp307
S'Q1792'
p308
aF0.0
aF0.0
aF0.0
aF0.0
aF0.0
aF0.0
aF1.0
aF0.0
aF0.0
aF0.0
aF156.0
aF1.6561833507655024
aF1.7308614264064197
aF0.5922501872949415
aF1.358846657928
aF1.23512450852
aF0.441415465268
aF0.945740498036
aF0.018872870249
aF0.0
aF1.0
aF0.0
aF0.0
aF3.9978445436829975
aI2
aa(lp309
S'Q1805'
p310
aF2.0
aF0.0
aF0.0
aF0.0
aF0.0
aF0.0
aF0.0
aF0.0
aF0.0
aF0.0
aF309.0
aF2.7072338929016424
aF1.8974909417922126
aF0.8885713477593478
aF5.25
aF0.75
aF0.0
aF0.0
aF0.0
aF0.0
aF0.0
aF0.0
aF0.0
aF5.997719437063956
aI1
aa(lp311
S'Q1808'
p312
aF1.0
aF0.0
aF0.0
aF0.0
aF0.0
aF1.0
aF0.0
aF0.0
aF3.0
aF0.0
aF490.0
aF3.1377950802697807
aF3.008081658275605
aF0.2756648015390347
aF3.057404980338
aF2.77903014417
aF0.9931847968530003
aF2.1279161205809998
aF0.04246395806025
aF0.0
aF2.0
aF0.0
aF0.0
aF8.999319457040572
aI0
aa(lp313
S'Q1827'
p314
aF0.0
aF0.0
aF0.0
aF0.0
aF0.0
aF0.0
aF0.0
aF0.0
aF0.0
aF0.0
aF22.0
aF0.2765093209628926
aF0.21731272247860803
aF0.0
aF0.339711664482
aF0.30878112713
aF0.110353866317
aF0.236435124509
aF0.00471821756225
aF0.0
aF0.0
aF1.0
aF0.0
aF0.999823236210199
aI0
aa(lp315
S'Q1831'
p316
aF0.0
aF0.0
aF1.0
aF0.0
aF0.0
aF1.0
aF0.0
aF0.0
aF0.0
aF0.0
aF1008.0
aF5.192664755430236
aF4.592935051481847
aF2.331590843358523
aF2.98339483395
aF1.112546125464
aF0.59778597786
aF1.284132841326
aF0.022140221402220002
aF0.0
aF0.0
aF0.0
aF0.0
aF5.999904385944702
aI1
aa(lp317
S'Q1837'
p318
aF0.0
aF0.0
aF0.0
aF0.0
aF0.0
aF0.0
aF0.0
aF0.0
aF0.0
aF0.0
aF748.0
aF2.9308899180096084
aF2.6829458819377563
aF1.629522736453323
aF1.811688311688
aF0.34415584415699996
aF0.20129870129879998
aF0.6341991342
aF0.004329004329
aF0.004329004329
aF0.0
aF0.0
aF0.0
aF2.9999900491334905
aI2
aa(lp319
S'Q1859'
p320
aF1.0
aF0.0
aF1.0
aF0.0
aF0.0
aF1.0
aF0.0
aF0.0
aF0.0
aF0.0
aF561.0
aF5.38309020979438
aF3.574819544075166
aF2.4694740211779593
aF4.394977168953
aF0.6712328767122999
aF0.783105022833
aF1.102739726025
aF0.04794520547943
aF0.0
aF0.0
aF0.0
aF0.0
aF6.999880738006961
aI2
aa(lp321
S'Q1869'
p322
aF5.0
aF0.0
aF0.0
aF0.0
aF0.0
aF0.0
aF0.0
aF0.0
aF1.0
aF0.0
aF386.0
aF6.630264515259411
aF5.321340536794552
aF2.709090328807061
aF5.435064935064
aF1.032467532471
aF0.6038961038963998
aF1.9025974025999997
aF0.012987012987000002
aF0.012987012987000002
aF0.0
aF0.0
aF0.0
aF17.999670541769685
aI0
aa(lp323
S'Q1872'
p324
aF1.0
aF0.0
aF0.0
aF0.0
aF0.0
aF0.0
aF0.0
aF0.0
aF0.0
aF0.0
aF265.0
aF1.7730411267549955
aF0.8472493683214494
aF2.052347882949453
aF2.318559556788
aF0.515235457064
aF0.393351800554
aF0.770083102492
aF0.002770083102492
aF0.0
aF0.0
aF0.0
aF0.0
aF3.999911281343978
aI0
aa(lp325
S'Q1887'
p326
aF0.0
aF0.0
aF0.0
aF0.0
aF0.0
aF0.0
aF0.0
aF0.0
aF4.0
aF0.0
aF232.0
aF3.463263707348401
aF2.625221034085401
aF0.8687115574749813
aF1.7069767441850001
aF1.311627906975
aF0.49302325581399997
aF1.4744186046499999
aF0.0139534883721
aF0.0
aF3.0
aF0.0
aF1.0
aF4.999843072622604
aI0
aa(lp327
S'Q1896'
p328
aF0.0
aF0.0
aF0.0
aF0.0
aF0.0
aF0.0
aF0.0
aF0.0
aF0.0
aF0.0
aF255.0
aF2.0793557492257877
aF2.6671854123076915
aF1.6895161158902172
aF1.653846153846
aF0.1538461538463
aF0.46153846153800004
aF0.73076923077
aF0.0
aF0.0
aF0.0
aF0.0
aF0.0
aF2.9999543741737575
aI1
aa(lp329
S'Q1898'
p330
aF0.0
aF0.0
aF2.0
aF0.0
aF0.0
aF3.0
aF1.0
aF3.0
aF3.0
aF0.0
aF1784.0
aF8.529749911701204
aF7.566557099547607
aF1.2472410962759577
aF6.827906976739997
aF5.2465116279
aF1.9720930232560006
aF5.8976744185999985
aF0.05581395348840001
aF0.0
aF5.0
aF0.0
aF0.0
aF19.99767643295737
aI0
aa(lp331
S'Q1903'
p332
aF0.0
aF0.0
aF0.0
aF0.0
aF0.0
aF0.0
aF0.0
aF0.0
aF0.0
aF0.0
aF173.0
aF2.337097438680719
aF1.4381329746422147
aF0.987478042642773
aF1.7069767441850001
aF1.311627906975
aF0.49302325581399997
aF1.4744186046499999
aF0.0139534883721
aF0.0
aF3.0
aF1.0
aF0.0
aF4.999151689002158
aI0
aa(lp333
S'Q1909'
p334
aF0.0
aF0.0
aF0.0
aF0.0
aF0.0
aF1.0
aF0.0
aF0.0
aF0.0
aF0.0
aF255.0
aF1.7386515102011308
aF1.957814331499091
aF1.2811552952028133
aF1.255707762558
aF0.1917808219178
aF0.223744292238
aF0.31506849315
aF0.01369863013698
aF0.0
aF0.0
aF0.0
aF0.0
aF1.999989648733198
aI2
aa(lp335
S'Q1915'
p336
aF0.0
aF0.0
aF0.0
aF0.0
aF0.0
aF0.0
aF0.0
aF0.0
aF0.0
aF0.0
aF8.0
aF0.9917777564443043
aF0.7866714349369742
aF0.5345224838248487
aF0.603896103896
aF0.114718614719
aF0.0670995670996
aF0.2113997114
aF0.001443001443
aF0.001443001443
aF1.0
aF0.0
aF0.0
aF0.9999815957592404
aI2
aa(lp337
S'Q1927'
p338
aF0.0
aF0.0
aF1.0
aF0.0
aF0.0
aF3.0
aF0.0
aF0.0
aF5.0
aF0.0
aF2437.0
aF15.287658401242005
aF11.779354173643789
aF2.263012600868988
aF8.040892193313
aF4.762081784396998
aF1.4052044609672996
aF6.791821561329002
aF0.0
aF0.0
aF2.0
aF1.0
aF6.0
aF20.999588001099536
aI2
aa(lp339
S'Q1978'
p340
aF0.0
aF0.0
aF0.0
aF0.0
aF0.0
aF0.0
aF0.0
aF0.0
aF0.0
aF0.0
aF11.0
aF0.30908442336147096
aF0.576278265874875
aF0.0
aF0.339711664482
aF0.30878112713
aF0.110353866317
aF0.236435124509
aF0.00471821756225
aF0.0
aF0.0
aF0.0
aF0.0
aF0.9999320603141196
aI1
aa(lp341
S'Q1985'
p342
aF0.0
aF0.0
aF0.0
aF0.0
aF0.0
aF0.0
aF0.0
aF0.0
aF0.0
aF0.0
aF4.0
aF0.148674275876376
aF0.2930115404111109
aF0.0
aF0.341395348837
aF0.262325581395
aF0.0986046511628
aF0.29488372093
aF0.00279069767442
aF0.0
aF1.0
aF0.0
aF0.0
aF0.9993348911446774
aI2
aa(lp343
S'Q2000'
p344
aF0.0
aF0.0
aF0.0
aF0.0
aF0.0
aF0.0
aF0.0
aF0.0
aF2.0
aF0.0
aF184.0
aF1.9214056916565065
aF2.1975359408016857
aF0.15029215695198872
aF1.69855832241
aF1.54390563565
aF0.5517693315850001
aF1.182175622545
aF0.02359108781125
aF0.0
aF2.0
aF0.0
aF0.0
aF13.999495791058681
aI2
aa(lp345
S'Q2005'
p346
aF1.0
aF0.0
aF1.0
aF0.0
aF0.0
aF0.0
aF0.0
aF0.0
aF0.0
aF0.0
aF1375.0
aF7.738638444622596
aF7.085654582995389
aF5.094723710673408
aF4.475092250925
aF1.6688191881959997
aF0.8966789667899999
aF1.9261992619890003
aF0.033210332103330006
aF0.0
aF0.0
aF0.0
aF0.0
aF8.999917142586085
aI0
aa(lp347
S'Q2014'
p348
aF0.0
aF0.0
aF0.0
aF0.0
aF0.0
aF0.0
aF0.0
aF0.0
aF0.0
aF0.0
aF269.0
aF3.3912414040104633
aF1.4778762644651036
aF0.7052710006608851
aF2.415584415584
aF0.458874458876
aF0.2683982683984
aF0.8455988456
aF0.005772005772
aF0.005772005772
aF0.0
aF0.0
aF0.0
aF3.9998500654043627
aI1
aa(lp349
S'Q2027'
p350
aF2.0
aF0.0
aF0.0
aF0.0
aF0.0
aF1.0
aF0.0
aF0.0
aF2.0
aF0.0
aF263.0
aF1.1666604398857612
aF2.104916177926505
aF0.35795618846613964
aF1.69855832241
aF1.54390563565
aF0.5517693315850001
aF1.182175622545
aF0.02359108781125
aF0.0
aF1.0
aF0.0
aF0.0
aF4.999755730867823
aI2
aa(lp351
S'Q2033'
p352
aF0.0
aF0.0
aF0.0
aF0.0
aF0.0
aF2.0
aF0.0
aF0.0
aF0.0
aF0.0
aF325.0
aF4.354164796281007
aF7.101742686171367
aF3.670723114844716
aF3.9800995024879997
aF0.6567164179104
aF1.0945273631839998
aF2.268656716416
aF0.0
aF0.0
aF0.0
aF0.0
aF0.0
aF7.9999069125000135
aI0
aa(lp353
S'Q2047'
p354
aF0.0
aF0.0
aF0.0
aF0.0
aF0.0
aF0.0
aF0.0
aF0.0
aF2.0
aF0.0
aF119.0
aF1.342165829115201
aF2.497868610377191
aF0.11112111111111113
aF1.9889298893
aF0.741697416976
aF0.39852398524
aF0.856088560884
aF0.01476014760148
aF0.0
aF1.0
aF0.0
aF0.0
aF12.999856217149887
aI0
aa(lp355
S'Q2063'
p356
aF0.0
aF0.0
aF0.0
aF0.0
aF0.0
aF0.0
aF0.0
aF0.0
aF0.0
aF0.0
aF1793.0
aF7.839539067553941
aF6.615401129884079
aF0.5332830742587766
aF7.615189873424
aF2.9569620253120004
aF1.2556962025312
aF4.1316455696159995
aF0.040506329113920006
aF0.0
aF3.0
aF0.0
aF0.0
aF33.998465953575334
aI2
aa(lp357
S'Q2064'
p358
aF0.0
aF0.0
aF0.0
aF0.0
aF0.0
aF0.0
aF0.0
aF0.0
aF1.0
aF0.0
aF331.0
aF3.4792567312529514
aF2.64008422831029
aF2.2244364054757266
aF2.625
aF0.1458333333332
aF0.666666666668
aF0.5625
aF0.0
aF0.0
aF1.0
aF0.0
aF0.0
aF3.9999056480284843
aI0
aa(lp359
S'Q2066'
p360
aF0.0
aF0.0
aF0.0
aF0.0
aF0.0
aF0.0
aF0.0
aF0.0
aF0.0
aF0.0
aF168.0
aF2.2479571219311842
aF2.5115835492414407
aF1.195491902975031
aF2.04761904762
aF0.507936507936
aF0.460317460316
aF0.984126984128
aF0.0
aF0.0
aF0.0
aF0.0
aF0.0
aF3.9996940636989713
aI1
aa(lp361
S'Q2067'
p362
aF0.0
aF0.0
aF0.0
aF0.0
aF0.0
aF0.0
aF0.0
aF0.0
aF0.0
aF0.0
aF102.0
aF0.7691210336054217
aF0.5021631737460986
aF0.3086066999241839
aF0.843665768194
aF0.33423180593
aF0.1913746630728
aF0.592991913746
aF0.0377358490566
aF0.0
aF0.0
aF1.0
aF0.0
aF1.9998897005484473
aI2
aa(lp363
S'Q2068'
p364
aF1.0
aF0.0
aF0.0
aF0.0
aF0.0
aF0.0
aF0.0
aF0.0
aF0.0
aF0.0
aF294.0
aF4.472515370068547
aF2.2451641879411772
aF2.6647839573862835
aF3.139269406395
aF0.4794520547945
aF0.559360730595
aF0.7876712328750001
aF0.03424657534245
aF0.0
aF0.0
aF0.0
aF0.0
aF4.9998854476826
aI0
aa(lp365
S'Q2085'
p366
aF0.0
aF0.0
aF0.0
aF0.0
aF0.0
aF0.0
aF0.0
aF0.0
aF0.0
aF0.0
aF433.0
aF3.125905622901387
aF1.419038786856666
aF0.36759233011185627
aF2.717693315856
aF2.47024901704
aF0.8828309305360003
aF1.8914809960719998
aF0.037745740498
aF0.0
aF2.0
aF1.0
aF0.0
aF7.994576216128552
aI2
aa(lp367
S'Q2088'
p368
aF0.0
aF0.0
aF0.0
aF0.0
aF0.0
aF0.0
aF0.0
aF0.0
aF5.0
aF0.0
aF401.0
aF4.766618443348232
aF2.6664587834646243
aF1.6187007952266015
aF3.623376623376
aF0.688311688314
aF0.4025974025975999
aF1.2683982684
aF0.008658008658
aF0.008658008658
aF2.0
aF0.0
aF0.0
aF5.999893546874669
aI1
aa(lp369
S'Q2089'
p370
aF0.0
aF0.0
aF0.0
aF0.0
aF0.0
aF1.0
aF0.0
aF0.0
aF0.0
aF0.0
aF1589.0
aF3.515663196997095
aF4.14408901557828
aF2.7552589528812197
aF2.9393305439349997
aF0.5230125523
aF0.407949790795
aF1.119246861925
aF0.01046025104605
aF0.0
aF1.0
aF0.0
aF0.0
aF4.999920872465083
aI2
aa(lp371
S'Q2106'
p372
aF2.0
aF0.0
aF0.0
aF0.0
aF0.0
aF0.0
aF0.0
aF0.0
aF0.0
aF0.0
aF818.0
aF4.241522914072368
aF2.037746422430065
aF2.226097807609493
aF5.483827493261
aF2.172506738545
aF1.2439353099731998
aF3.854447439349001
aF0.24528301886789997
aF0.0
aF2.0
aF0.0
aF0.0
aF12.998954402908423
aI0
aa(lp373
S'Q2115'
p374
aF1.0
aF0.0
aF0.0
aF0.0
aF0.0
aF0.0
aF0.0
aF0.0
aF0.0
aF0.0
aF11.0
aF0.6062356818864559
aF0.5962755053949194
aF0.5773502691896258
aF0.587866108787
aF0.10460251046
aF0.081589958159
aF0.223849372385
aF0.00209205020921
aF0.0
aF0.0
aF0.0
aF0.0
aF0.9998004720129522
aI0
aa(lp375
S'Q2116'
p376
aF1.0
aF0.0
aF0.0
aF0.0
aF0.0
aF2.0
aF0.0
aF3.0
aF0.0
aF0.0
aF1769.0
aF2.9539280497513007
aF4.158027767394978
aF2.1221237667081625
aF2.486162361625
aF0.92712177122
aF0.49815498155
aF1.070110701105
aF0.01845018450185
aF0.0
aF0.0
aF0.0
aF0.0
aF4.999937572123922
aI0
aa(lp377
S'Q2118'
p378
aF0.0
aF0.0
aF0.0
aF0.0
aF0.0
aF0.0
aF0.0
aF0.0
aF0.0
aF0.0
aF245.0
aF2.5864303054015823
aF2.4320305709198538
aF1.3977434987760484
aF1.811688311688
aF0.34415584415699996
aF0.20129870129879998
aF0.6341991342
aF0.004329004329
aF0.004329004329
aF0.0
aF0.0
aF0.0
aF2.9999710885091986
aI0
aa(lp379
S'Q2123'
p380
aF1.0
aF0.0
aF0.0
aF0.0
aF0.0
aF0.0
aF0.0
aF0.0
aF0.0
aF0.0
aF676.0
aF5.083489432670235
aF4.178773193832176
aF3.1490540857387823
aF3.477839335182
aF0.772853185596
aF0.590027700831
aF1.155124653738
aF0.004155124653738
aF0.0
aF3.0
aF0.0
aF0.0
aF5.999848057947691
aI1
aa(lp381
S'Q2129'
p382
aF0.0
aF0.0
aF0.0
aF0.0
aF0.0
aF1.0
aF0.0
aF0.0
aF1.0
aF0.0
aF350.0
aF2.748259853972931
aF3.8068403395098875
aF2.5213754589030843
aF2.3797468354449998
aF0.92405063291
aF0.392405063291
aF1.2911392405050002
aF0.0126582278481
aF0.0
aF2.0
aF0.0
aF0.0
aF4.999899739478102
aI0
aa(lp383
S'Q2133'
p384
aF0.0
aF0.0
aF0.0
aF0.0
aF0.0
aF0.0
aF0.0
aF0.0
aF0.0
aF0.0
aF176.0
aF3.498924192187948
aF1.8730422944742766
aF2.607841764029734
aF2.511415525116
aF0.3835616438356
aF0.447488584476
aF0.6301369863
aF0.02739726027396
aF0.0
aF0.0
aF0.0
aF0.0
aF3.999154388079882
aI2
aa(lp385
S'Q2139'
p386
aF0.0
aF0.0
aF0.0
aF0.0
aF0.0
aF0.0
aF0.0
aF0.0
aF2.0
aF0.0
aF189.0
aF1.5935368017179865
aF1.3389384163499656
aF0.43982640562744735
aF2.898199445985
aF0.64404432133
aF0.4916897506925
aF0.9626038781149999
aF0.0034626038781150003
aF0.0
aF1.0
aF0.0
aF0.0
aF4.99960982800588
aI0
aa(lp387
S'Q2145'
p388
aF0.0
aF0.0
aF0.0
aF0.0
aF0.0
aF0.0
aF0.0
aF0.0
aF0.0
aF0.0
aF0.0
aF0.6961474521166707
aF0.24663258422859866
aF1e-05
aF0.627853881279
aF0.0958904109589
aF0.111872146119
aF0.157534246575
aF0.00684931506849
aF0.0
aF0.0
aF1.0
aF0.0
aF10.0
aI2
aa(lp389
S'Q2158'
p390
aF0.0
aF0.0
aF0.0
aF0.0
aF0.0
aF0.0
aF0.0
aF0.0
aF1.0
aF0.0
aF88.0
aF2.3507501946045553
aF2.7317653151554904
aF0.8205105057938478
aF1.811688311688
aF0.34415584415699996
aF0.20129870129879998
aF0.6341991342
aF0.004329004329
aF0.004329004329
aF1.0
aF0.0
aF0.0
aF2.9999117052554842
aI1
aa(lp391
S'Q2162'
p392
aF0.0
aF0.0
aF0.0
aF0.0
aF0.0
aF0.0
aF0.0
aF0.0
aF0.0
aF0.0
aF14.0
aF0.2190030088288268
aF0.9296705190712464
aF0.0
aF0.370629370629
aF0.314685314685
aF0.041958041958
aF0.265734265734
aF0.00699300699301
aF0.0
aF0.0
aF0.0
aF0.0
aF0.9997816476579537
aI2
aa(lp393
S'Q2188'
p394
aF1.0
aF0.0
aF1.0
aF0.0
aF0.0
aF2.0
aF0.0
aF0.0
aF0.0
aF0.0
aF371.0
aF4.905195842995985
aF5.5624584130159676
aF0.8909971695060754
aF4.97512437811
aF0.820895522388
aF1.3681592039799997
aF2.83582089552
aF0.0
aF0.0
aF0.0
aF0.0
aF0.0
aF18.998832889578207
aI2
aa(lp395
S'Q2189'
p396
aF4.0
aF0.0
aF2.0
aF0.0
aF0.0
aF15.0
aF5.0
aF2.0
aF2.0
aF0.0
aF18678.0
aF46.14848106868165
aF65.09083755683965
aF6.628896858502812
aF44.26329113927704
aF17.18734177212602
aF7.29873417721259
aF24.015189873393044
aF0.23544303797465962
aF0.0
aF0.0
aF16.0
aF0.0
aF92.99647773466381
aI2
aa(lp397
S'Q2200'
p398
aF0.0
aF0.0
aF0.0
aF0.0
aF0.0
aF0.0
aF0.0
aF0.0
aF1.0
aF0.0
aF176.0
aF1.5289238702497123
aF1.9349835963139512
aF0.0
aF3.537414965985
aF0.4421768707485
aF0.2721088435375
aF0.7482993197300001
aF0.0
aF0.0
aF1.0
aF0.0
aF0.0
aF4.999650755512913
aI2
aa(lp399
S'Q2232'
p400
aF5.0
aF0.0
aF0.0
aF0.0
aF0.0
aF2.0
aF0.0
aF0.0
aF1.0
aF0.0
aF2318.0
aF12.640317655848754
aF2.259493471353947
aF0.7792284634696955
aF12.681818181816
aF2.409090909099
aF1.4090909090915995
aF4.4393939393999995
aF0.03030303030300001
aF0.03030303030300001
aF1.0
aF0.0
aF0.0
aF20.994046870987724
aI0
aa(lp401
S'Q2261'
p402
aF0.0
aF0.0
aF0.0
aF0.0
aF0.0
aF1.0
aF0.0
aF0.0
aF1.0
aF0.0
aF466.0
aF4.456953135672814
aF4.530262662989264
aF1.0297564355165671
aF2.717693315856
aF2.47024901704
aF0.8828309305360003
aF1.8914809960719998
aF0.037745740498
aF0.0
aF1.0
aF1.0
aF0.0
aF7.999261771149078
aI0
aa(lp403
S'Q2265'
p404
aF2.0
aF0.0
aF0.0
aF0.0
aF0.0
aF0.0
aF0.0
aF0.0
aF0.0
aF0.0
aF784.0
aF7.921054881700346
aF5.415915127959536
aF1.66637119986639
aF6.03896103896
aF1.14718614719
aF0.6709956709959998
aF2.1139971139999996
aF0.014430014430000002
aF0.014430014430000002
aF2.0
aF0.0
aF0.0
aF9.998241832860344
aI0
aa(lp405
S'Q2295'
p406
aF1.0
aF0.0
aF0.0
aF0.0
aF0.0
aF0.0
aF0.0
aF0.0
aF0.0
aF0.0
aF105.0
aF1.5516297983841387
aF0.8565884170059824
aF1.489918693812442
aF1.490039840638
aF0.0637450199204
aF0.223107569722
aF0.223107569722
aF0.0
aF0.0
aF0.0
aF0.0
aF0.0
aF1.9999754708997375
aI2
aa(lp407
S'Q2297'
p408
aF1.0
aF0.0
aF0.0
aF0.0
aF0.0
aF0.0
aF0.0
aF0.0
aF0.0
aF0.0
aF89.0
aF1.954676778339487
aF1.2792116447900317
aF1.0812632457095435
aF1.175732217574
aF0.20920502092
aF0.163179916318
aF0.44769874477
aF0.00418410041842
aF0.0
aF0.0
aF0.0
aF0.0
aF1.9999679141279965
aI0
aa(lp409
S'Q2307'
p410
aF0.0
aF0.0
aF0.0
aF0.0
aF0.0
aF0.0
aF0.0
aF0.0
aF0.0
aF0.0
aF232.0
aF1.6603467572656965
aF1.6925697336508807
aF0.9768836110734462
aF0.99446494465
aF0.370848708488
aF0.19926199262
aF0.428044280442
aF0.00738007380074
aF0.0
aF0.0
aF0.0
aF0.0
aF1.999985341174173
aI2
aa(lp411
S'Q2310'
p412
aF0.0
aF0.0
aF1.0
aF0.0
aF0.0
aF0.0
aF0.0
aF2.0
aF0.0
aF0.0
aF2528.0
aF18.999896179031857
aF20.8591634306973
aF2.8911646066330934
aF11.550196592388
aF10.49855832242
aF3.7520314547779985
aF8.038794233305996
aF0.16041939711649988
aF0.0
aF8.0
aF14.0
aF0.0
aF42.99560188736033
aI1
aa(lp413
S'Q2341'
p414
aF0.0
aF0.0
aF0.0
aF0.0
aF0.0
aF0.0
aF0.0
aF0.0
aF0.0
aF0.0
aF108.0
aF1.652672920648235
aF1.0587144115128817
aF1.2677930101929429
aF1.490039840638
aF0.0637450199204
aF0.223107569722
aF0.223107569722
aF0.0
aF0.0
aF0.0
aF0.0
aF0.0
aF1.999974027592902
aI0
aa(lp415
S'Q2355'
p416
aF0.0
aF0.0
aF2.0
aF0.0
aF0.0
aF0.0
aF0.0
aF0.0
aF1.0
aF0.0
aF458.0
aF4.308075507389857
aF1.5512618837322918
aF2.0258633983203636
aF3.623376623376
aF0.688311688314
aF0.4025974025975999
aF1.2683982684
aF0.008658008658
aF0.008658008658
aF1.0
aF0.0
aF0.0
aF5.999634708840419
aI0
aa(lp417
S'Q2362'
p418
aF2.0
aF0.0
aF0.0
aF0.0
aF0.0
aF0.0
aF0.0
aF0.0
aF0.0
aF0.0
aF236.0
aF5.554856588594862
aF2.0353746535947166
aF4.073140422817703
aF3.623376623376
aF0.688311688314
aF0.4025974025975999
aF1.2683982684
aF0.008658008658
aF0.008658008658
aF0.0
aF0.0
aF0.0
aF5.999864765993484
aI1
aa(lp419
S'Q2366'
p420
aF1.0
aF0.0
aF0.0
aF0.0
aF0.0
aF0.0
aF0.0
aF0.0
aF0.0
aF0.0
aF795.0
aF9.314415399310512
aF8.64363612622048
aF5.341520723567854
aF5.2277904328
aF1.26423690205
aF1.0933940774500004
aF2.3576309795
aF0.0569476082005
aF0.0
aF0.0
aF3.0
aF0.0
aF9.999919060610457
aI1
aa(lp421
S'Q2391'
p422
aF0.0
aF0.0
aF0.0
aF0.0
aF0.0
aF0.0
aF0.0
aF0.0
aF2.0
aF0.0
aF364.0
aF2.9035430966409317
aF2.5225727507534264
aF1.8417208892644268
aF1.883561643837
aF0.2876712328767
aF0.335616438357
aF0.472602739725
aF0.02054794520547
aF0.0
aF1.0
aF0.0
aF0.0
aF2.9999878934347297
aI0
aa(lp423
S'Q2410'
p424
aF0.0
aF0.0
aF0.0
aF0.0
aF0.0
aF0.0
aF0.0
aF0.0
aF0.0
aF0.0
aF88.0
aF0.9879275780100494
aF0.8707241949820811
aF0.6324555320336759
aF0.603896103896
aF0.114718614719
aF0.0670995670996
aF0.2113997114
aF0.001443001443
aF0.001443001443
aF0.0
aF0.0
aF0.0
aF0.9999886232535622
aI0
aa(lp425
S'Q2435'
p426
aF0.0
aF0.0
aF0.0
aF0.0
aF0.0
aF0.0
aF0.0
aF0.0
aF0.0
aF0.0
aF177.0
aF3.779378816786133
aF3.876666215508762
aF3.219931937364189
aF2.351464435148
aF0.41841004184
aF0.326359832636
aF0.89539748954
aF0.00836820083684
aF0.0
aF0.0
aF0.0
aF0.0
aF3.999959785389147
aI1
aa(lp427
S'Q2450'
p428
aF0.0
aF0.0
aF0.0
aF0.0
aF0.0
aF0.0
aF0.0
aF0.0
aF0.0
aF0.0
aF202.0
aF1.7335437777238925
aF0.7159617501233353
aF1.214596006528124
aF1.307692307692
aF0.0961538461538
aF0.201923076924
aF0.39423076923
aF0.0
aF0.0
aF1.0
aF0.0
aF0.0
aF1.9999605413266615
aI2
aa(lp429
S'Q2455'
p430
aF1.0
aF0.0
aF0.0
aF0.0
aF0.0
aF0.0
aF0.0
aF0.0
aF0.0
aF0.0
aF743.0
aF2.9125387553042184
aF1.5498483963010363
aF0.9774959676910537
aF1.811688311688
aF0.34415584415699996
aF0.20129870129879998
aF0.6341991342
aF0.004329004329
aF0.004329004329
aF0.0
aF0.0
aF0.0
aF2.9999655060362476
aI0
aa(lp431
S'Q2505'
p432
aF0.0
aF0.0
aF0.0
aF0.0
aF0.0
aF0.0
aF0.0
aF0.0
aF0.0
aF0.0
aF147.0
aF1.7075036226222273
aF0.4378655399410713
aF0.919358503120486
aF1.883561643837
aF0.2876712328767
aF0.335616438357
aF0.472602739725
aF0.02054794520547
aF0.0
aF0.0
aF0.0
aF0.0
aF2.999784454652324
aI1
aa(lp433
S'Q2519'
p434
aF2.0
aF0.0
aF0.0
aF0.0
aF0.0
aF0.0
aF0.0
aF2.0
aF2.0
aF0.0
aF679.0
aF4.669258715323638
aF5.5716976949632935
aF1.4192919795502472
aF4.218328840969999
aF1.67115902965
aF0.9568733153639998
aF2.9649595687300008
aF0.18867924528299998
aF0.0
aF5.0
aF0.0
aF0.0
aF9.999784894668046
aI0
aa(lp435
S'Q2549'
p436
aF0.0
aF0.0
aF0.0
aF0.0
aF0.0
aF0.0
aF0.0
aF0.0
aF0.0
aF0.0
aF10.0
aF0.9811015594949771
aF-0.0002500290365645113
aF0.0
aF0.339711664482
aF0.30878112713
aF0.110353866317
aF0.236435124509
aF0.00471821756225
aF0.0
aF0.0
aF0.0
aF0.0
aF0.9999616488105538
aI0
aa(lp437
S'Q2564'
p438
aF0.0
aF0.0
aF0.0
aF0.0
aF0.0
aF0.0
aF0.0
aF2.0
aF0.0
aF0.0
aF234.0
aF3.3012560859750595
aF2.6641947863324944
aF1.2891698469220132
aF3.07142857143
aF0.7619047619039999
aF0.690476190474
aF1.4761904761920002
aF0.0
aF0.0
aF1.0
aF1.0
aF0.0
aF5.999572914602456
aI0
aa(lp439
S'Q2568'
p440
aF0.0
aF0.0
aF1.0
aF0.0
aF0.0
aF0.0
aF0.0
aF0.0
aF0.0
aF0.0
aF126.0
aF1.6067904063897587
aF1.4581711737152467
aF1.293431054421469
aF1.317422434368
aF0.1575178997614
aF0.238663484486
aF0.286396181384
aF0.0
aF0.0
aF0.0
aF0.0
aF0.0
aF1.999974584359344
aI1
aa(lp441
S'Q2575'
p442
aF0.0
aF0.0
aF0.0
aF0.0
aF0.0
aF0.0
aF0.0
aF0.0
aF0.0
aF0.0
aF314.0
aF2.2033865655140845
aF1.2313077490242308
aF0.8731876813719477
aF3.01948051948
aF0.573593073595
aF0.33549783549799994
aF1.056998557
aF0.007215007214999999
aF0.007215007214999999
aF0.0
aF0.0
aF0.0
aF4.999742848202078
aI2
aa(lp443
S'Q2581'
p444
aF1.0
aF0.0
aF0.0
aF0.0
aF0.0
aF1.0
aF0.0
aF1.0
aF0.0
aF0.0
aF2956.0
aF13.829546501810215
aF9.041763348111854
aF3.5491929807961204
aF9.662337662336
aF1.8354978355040001
aF1.0735930735935997
aF3.382395382399999
aF0.023088023088000006
aF0.023088023088000006
aF0.0
aF2.0
aF0.0
aF15.999606935063483
aI0
aa(lp445
S'Q2589'
p446
aF0.0
aF0.0
aF0.0
aF0.0
aF0.0
aF0.0
aF0.0
aF0.0
aF0.0
aF0.0
aF85.0
aF1.037604824164428
aF1.288427413073561
aF0.4811252243246882
aF1.024186046511
aF0.786976744185
aF0.2958139534884
aF0.88465116279
aF0.008372093023259999
aF0.0
aF0.0
aF0.0
aF0.0
aF2.999916034769246
aI2
aa(lp447
S'Q2594'
p448
aF4.0
aF0.0
aF0.0
aF0.0
aF0.0
aF1.0
aF0.0
aF0.0
aF0.0
aF0.0
aF973.0
aF8.783017689527853
aF12.37651384467945
aF2.083113877233439
aF8.153846153837996
aF6.923076923069998
aF0.9230769230760002
aF5.846153846148001
aF0.15384615384622005
aF0.0
aF0.0
aF0.0
aF0.0
aF30.99469502018491
aI0
aa.