(lp0
(lp1
S'Q7'
p2
aF0.68472671579714
aF0.1804188314728987
aF0.17834317909770997
aF0.603896103896
aF0.114718614719
aF0.0670995670996
aF0.2113997114
aF0.001443001443
aF0.001443001443
aF0.0
aF0.0
aF0.9999634192255484
aI0
aa(lp3
S'Q10'
p4
aF0.41534247511170913
aF0.6107066876963009
aF0.34107338477225035
aF0.627853881279
aF0.0958904109589
aF0.11187214611900001
aF0.157534246575
aF0.00684931506849
aF0.0
aF0.0
aF0.2
aF0.9999817139253665
aI2
aa(lp5
S'Q13'
p6
aF0.7168888053007035
aF0.6455813013160989
aF0.4043268982896378
aF0.627853881279
aF0.0958904109589
aF0.111872146119
aF0.157534246575
aF0.00684931506849
aF0.0
aF0.3333333333333333
aF0.0
aF0.9999529805947812
aI2
aa(lp7
S'Q16'
p8
aF0.5602786894224046
aF0.06666651932712857
aF0.0
aF0.339711664482
aF0.30878112713
aF0.110353866317
aF0.236435124509
aF0.00471821756225
aF0.0
aF1.0
aF0.0
aF0.9981223364503682
aI2
aa(lp9
S'Q20'
p10
aF0.7784409699315276
aF0.33159959942470624
aF0.13107236515313087
aF0.603896103896
aF0.114718614719
aF0.0670995670996
aF0.2113997114
aF0.001443001443
aF0.001443001443
aF0.2
aF0.0
aF0.9999368274011647
aI1
aa(lp11
S'Q44'
p12
aF0.6455407663403168
aF0.3478317645758203
aF0.2183704551541392
aF0.511904761905
aF0.126984126984
aF0.115079365079
aF0.246031746032
aF0.0
aF0.0
aF0.0
aF0.0
aF0.9999636795268714
aI0
aa(lp13
S'Q56'
p14
aF0.7743120529363109
aF0.5030760453608009
aF0.26795369005726033
aF0.627853881279
aF0.0958904109589
aF0.111872146119
aF0.157534246575
aF0.00684931506849
aF0.0
aF0.0
aF0.0
aF0.999960393780519
aI2
aa(lp15
S'Q66'
p16
aF0.86555187745792
aF0.8040934234715305
aF0.4912407607308153
aF0.52277904328
aF0.126423690205
aF0.10933940774500002
aF0.23576309795
aF0.00569476082005
aF0.0
aF0.0
aF0.0
aF0.9999917291659566
aI1
aa(lp17
S'Q78'
p18
aF0.8182272033114271
aF0.8980431693652646
aF0.3816277169714338
aF0.627853881279
aF0.0958904109589
aF0.111872146119
aF0.157534246575
aF0.00684931506849
aF0.0
aF0.0
aF0.0
aF0.9999866011747895
aI0
aa(lp19
S'Q84'
p20
aF0.4771941492724709
aF0.4516080089519324
aF0.0854271072033728
aF0.4218328840969999
aF0.167115902965
aF0.09568733153639998
aF0.29649595687300007
aF0.0188679245283
aF0.0
aF0.5
aF0.0
aF0.9999631270581681
aI2
aa(lp21
S'Q97'
p22
aF0.4126405403189879
aF0.46365515014459
aF0.13781608480000782
aF0.5796398891969999
aF0.128808864266
aF0.0983379501385
aF0.192520775623
aF0.000692520775623
aF0.0
aF0.3333333333333333
aF0.3333333333333333
aF0.9998212766159206
aI0
aa(lp23
S'Q105'
p24
aF0.7338543214432353
aF0.9545552068110293
aF0.45266977409564485
aF0.65625
aF0.0364583333333
aF0.166666666667
aF0.140625
aF0.0
aF0.0
aF0.0
aF0.0
aF0.9999754669326546
aI1
aa(lp25
S'Q115'
p26
aF0.918986075003199
aF0.855517445536019
aF0.5062629741694676
aF0.627853881279
aF0.0958904109589
aF0.111872146119
aF0.157534246575
aF0.00684931506849
aF0.0
aF0.25
aF0.0
aF0.9999881404032961
aI1
aa(lp27
S'Q118'
p28
aF0.28295002465493274
aF0.30526000991752555
aF0.02267910674159443
aF0.497512437811
aF0.0820895522388
aF0.13681592039799997
aF0.283582089552
aF0.0
aF0.0
aF0.0
aF0.16666666666666666
aF0.9999358582003919
aI2
aa(lp29
S'Q126'
p30
aF0.3742826909582395
aF0.4007103903708076
aF0.24808779244991278
aF0.627853881279
aF0.0958904109589
aF0.111872146119
aF0.157534246575
aF0.00684931506849
aF0.0
aF0.0
aF0.5
aF0.99995685200749
aI0
aa(lp31
S'Q142'
p32
aF0.07294783280916624
aF0.6841121661297295
aF0.2
aF0.339711664482
aF0.30878112713
aF0.110353866317
aF0.236435124509
aF0.00471821756225
aF0.0
aF0.0
aF0.0
aF0.999961949066939
aI2
aa(lp33
S'Q153'
p34
aF0.40260803032690246
aF0.3642745350879716
aF0.07716436187217407
aF0.30841121495299995
aF0.34579439252299987
aF0.07476635514020001
aF0.26168224299100007
aF0.009345794392520004
aF0.0
aF0.375
aF0.0625
aF0.9999419188743398
aI2
aa(lp35
S'Q174'
p36
aF0.17714274499165483
aF0.19675436502776833
aF0.0
aF0.339711664482
aF0.30878112713
aF0.110353866317
aF0.236435124509
aF0.00471821756225
aF0.0
aF0.0
aF0.0
aF0.9999423517806909
aI0
aa(lp37
S'Q189'
p38
aF0.14716766993072672
aF0.3228432070538244
aF0.11402704202770667
aF0.627853881279
aF0.0958904109589
aF0.11187214611900001
aF0.157534246575
aF0.00684931506849
aF0.0
aF0.0
aF0.2
aF0.9999786219705973
aI1
aa(lp39
S'Q209'
p40
aF0.1037468903681469
aF0.611443130143267
aF0.0
aF0.339711664482
aF0.30878112713
aF0.110353866317
aF0.236435124509
aF0.00471821756225
aF0.0
aF0.0
aF1.0
aF0.9998538626882973
aI0
aa(lp41
S'Q211'
p42
aF0.6503517751524762
aF0.817942769154715
aF0.5175083446415362
aF0.52277904328
aF0.126423690205
aF0.109339407745
aF0.23576309794999997
aF0.00569476082005
aF0.0
aF0.3333333333333333
aF0.0
aF0.9999865558418565
aI2
aa(lp43
S'Q223'
p44
aF0.4548806212359792
aF0.47918668872700315
aF0.13834911203334374
aF0.49723247232500034
aF0.18542435424399994
aF0.09963099631000004
aF0.21402214022100005
aF0.003690036900369998
aF0.0
aF0.1935483870967742
aF0.0967741935483871
aF1.2896709658438783
aI1
aa(lp45
S'Q224'
p46
aF0.08861212067600108
aF0.5812790193035496
aF0.0
aF0.341395348837
aF0.262325581395
aF0.0986046511628
aF0.29488372093
aF0.00279069767442
aF0.0
aF0.0
aF1.0
aF0.9996544301493872
aI2
aa(lp47
S'Q231'
p48
aF0.7825896468250948
aF0.636952656359057
aF0.4230912542709767
aF0.603896103896
aF0.114718614719
aF0.0670995670996
aF0.2113997114
aF0.001443001443
aF0.001443001443
aF0.4
aF0.2
aF0.9999166901856442
aI1
aa(lp49
S'Q258'
p50
aF0.7917433992787608
aF0.7505045760789619
aF0.47935647909534823
aF0.603896103896
aF0.114718614719
aF0.0670995670996
aF0.2113997114
aF0.001443001443
aF0.001443001443
aF0.2
aF0.0
aF0.9999903995067948
aI2
aa(lp51
S'Q278'
p52
aF0.9248331078393042
aF0.8993303513483744
aF0.4479372758646828
aF0.587866108787
aF0.10460251046
aF0.081589958159
aF0.223849372385
aF0.00209205020921
aF0.0
aF0.25
aF0.0
aF0.9999833047507029
aI2
aa(lp53
S'Q280'
p54
aF0.5043218817585693
aF0.07083689438129202
aF0.19657669241884557
aF0.339711664482
aF0.30878112713
aF0.11035386631700003
aF0.23643512450899998
aF0.00471821756225
aF0.0
aF0.0
aF0.0
aF0.9999518347966059
aI1
aa(lp55
S'Q296'
p56
aF0.7361972710520415
aF0.6438529326198692
aF0.27426479189481695
aF0.587866108787
aF0.10460251045999999
aF0.08158995815900001
aF0.22384937238500002
aF0.0020920502092100003
aF0.0
aF0.2727272727272727
aF0.0
aF0.9999903697244575
aI0
aa(lp57
S'Q314'
p58
aF0.8824043364436756
aF0.6578190788366092
aF0.3908070037070984
aF0.603896103896
aF0.114718614719
aF0.0670995670996
aF0.2113997114
aF0.001443001443
aF0.001443001443
aF0.4
aF0.0
aF0.999986682469682
aI0
aa(lp59
S'Q322'
p60
aF0.7790191678631281
aF0.8736643966795256
aF0.5162090721475067
aF0.579639889197
aF0.128808864266
aF0.0983379501385
aF0.192520775623
aF0.000692520775623
aF0.0
aF0.0
aF0.0
aF0.9999871034952611
aI0
aa(lp61
S'Q341'
p62
aF0.7232870169669209
aF0.2544137881607598
aF0.15143504927632975
aF0.49723247232500006
aF0.18542435424400003
aF0.09963099631
aF0.214022140221
aF0.00369003690037
aF0.0
aF0.0
aF0.3333333333333333
aF0.9999547249419724
aI2
aa(lp63
S'Q361'
p64
aF0.876897780295845
aF0.7846071316941801
aF0.4669732827874534
aF0.421832884097
aF0.167115902965
aF0.0956873315364
aF0.296495956873
aF0.0188679245283
aF0.0
aF0.0
aF0.0
aF0.9999892791158118
aI0
aa(lp65
S'Q364'
p66
aF0.596802865846672
aF0.27891321246828843
aF0.09128709291752768
aF0.339711664482
aF0.30878112713
aF0.110353866317
aF0.236435124509
aF0.00471821756225
aF0.0
aF0.5
aF0.5
aF0.9999806296165326
aI2
aa(lp67
S'Q381'
p68
aF0.7893741203959219
aF0.6456030786124705
aF0.2347737950268108
aF0.339711664482
aF0.30878112713
aF0.11035386631700002
aF0.236435124509
aF0.00471821756225
aF0.0
aF0.0
aF0.0
aF0.9999809905424449
aI2
aa(lp69
S'Q386'
p70
aF0.5616982513169129
aF0.3538541093250091
aF0.12282592111012937
aF0.603896103896
aF0.114718614719
aF0.0670995670996
aF0.2113997114
aF0.001443001443
aF0.001443001443
aF0.5
aF0.0
aF0.9999818344619847
aI2
aa(lp71
S'Q407'
p72
aF0.3198578537749863
aF0.041412025662662874
aF0.029655032181954047
aF0.33971166448200013
aF0.30878112712999983
aF0.11035386631699999
aF0.23643512450899992
aF0.004718217562249998
aF0.0
aF0.37037037037037035
aF0.07407407407407407
aF0.9999322544596381
aI2
aa(lp73
S'Q414'
p74
aF0.6692886225801661
aF0.5017333376310392
aF0.2934932869980345
aF0.421832884097
aF0.167115902965
aF0.09568733153639998
aF0.29649595687300007
aF0.0188679245283
aF0.0
aF0.8333333333333334
aF0.0
aF0.9999801453001126
aI2
aa(lp75
S'Q424'
p76
aF0.9600492790678159
aF0.9189013599754612
aF0.588607156571803
aF0.603896103896
aF0.114718614719
aF0.0670995670996
aF0.2113997114
aF0.001443001443
aF0.001443001443
aF0.5
aF0.0
aF0.9999850602835516
aI1
aa(lp77
S'Q430'
p78
aF0.19109970871420276
aF0.36354768493490647
aF0.0
aF0.339711664482
aF0.30878112713
aF0.110353866317
aF0.236435124509
aF0.00471821756225
aF0.0
aF1.0
aF0.0
aF0.9999519518400911
aI2
aa(lp79
S'Q435'
p80
aF0.9625486788484534
aF0.9143070835858463
aF0.679025196200422
aF0.603896103896
aF0.11471861471899998
aF0.0670995670996
aF0.2113997114
aF0.001443001443
aF0.001443001443
aF0.0
aF0.0
aF0.9999913578026721
aI2
aa(lp81
S'Q444'
p82
aF0.9640492740622909
aF0.6630264508202417
aF0.6615185844757785
aF0.579639889197
aF0.128808864266
aF0.0983379501385
aF0.192520775623
aF0.000692520775623
aF0.0
aF1.0
aF0.0
aF0.9999885740473876
aI2
aa(lp83
S'Q453'
p84
aF0.7851984057887386
aF0.8731931849402484
aF0.5760964547890036
aF0.603896103896
aF0.11471861471899998
aF0.0670995670996
aF0.2113997114
aF0.001443001443
aF0.001443001443
aF1.0
aF0.0
aF0.9999899792086743
aI0
aa(lp85
S'Q458'
p86
aF0.8667371852621893
aF0.8236276192045399
aF0.7507113283557896
aF0.5796398891969999
aF0.128808864266
aF0.0983379501385
aF0.19252077562300002
aF0.000692520775623
aF0.0
aF0.1111111111111111
aF0.0
aF0.9999911521980359
aI1
aa(lp87
S'Q461'
p88
aF0.8343413570904185
aF0.5474735264411982
aF0.6058634886685647
aF0.627853881279
aF0.0958904109589
aF0.111872146119
aF0.157534246575
aF0.00684931506849
aF0.0
aF0.16666666666666666
aF0.0
aF0.9999768323508831
aI1
aa(lp89
S'Q476'
p90
aF0.937526647718104
aF0.8095622019836459
aF0.4360617647027487
aF0.52277904328
aF0.126423690205
aF0.109339407745
aF0.23576309795
aF0.00569476082005
aF0.0
aF0.0
aF0.0
aF0.9999871372137312
aI2
aa(lp91
S'Q478'
p92
aF0.68723991635872
aF0.283861103538684
aF0.26575100602159085
aF0.339711664482
aF0.30878112713
aF0.11035386631700002
aF0.23643512450899998
aF0.00471821756225
aF0.0
aF0.0
aF0.0
aF0.9999660654230556
aI2
aa(lp93
S'Q482'
p94
aF0.403802119730243
aF0.4357330322912504
aF0.059835582869653306
aF0.339711664482
aF0.30878112713
aF0.11035386631700003
aF0.23643512450899998
aF0.00471821756225
aF0.0
aF0.14285714285714285
aF0.14285714285714285
aF0.9999474701720895
aI0
aa(lp95
S'Q499'
p96
aF0.8025077215377387
aF0.889314102486064
aF0.5735248321527161
aF0.587866108787
aF0.10460251046
aF0.081589958159
aF0.22384937238499997
aF0.00209205020921
aF0.0
aF0.0
aF0.0
aF0.9999924307514234
aI0
aa(lp97
S'Q501'
p98
aF0.9759588096971998
aF0.765020787674992
aF0.45742989373228354
aF0.603896103896
aF0.11471861471899998
aF0.0670995670996
aF0.2113997114
aF0.001443001443
aF0.001443001443
aF0.3333333333333333
aF0.0
aF0.9999894010303877
aI2
aa(lp99
S'Q542'
p100
aF0.9781538013559942
aF0.8557680684639445
aF0.548972072551383
aF0.603896103896
aF0.11471861471899998
aF0.0670995670996
aF0.2113997114
aF0.001443001443
aF0.001443001443
aF0.0
aF0.0
aF0.9999872797447166
aI2
aa(lp101
S'Q543'
p102
aF0.5814679743708546
aF0.8771987816630364
aF0.227970077247177
aF0.52277904328
aF0.126423690205
aF0.109339407745
aF0.23576309794999997
aF0.00569476082005
aF0.0
aF0.3333333333333333
aF0.0
aF0.9999897117241048
aI0
aa(lp103
S'Q545'
p104
aF0.5586436061500109
aF0.6112285549579927
aF0.046674472759935394
aF0.34139534883699985
aF0.262325581395
aF0.09860465116280002
aF0.2948837209299999
aF0.0027906976744200003
aF0.0
aF0.10526315789473684
aF0.15789473684210525
aF0.9999179059346016
aI0
aa(lp105
S'Q562'
p106
aF0.47474357066060235
aF0.6399151832503572
aF0.11508056424934392
aF0.3413953488369999
aF0.26232558139500006
aF0.09860465116280002
aF0.29488372092999987
aF0.0027906976744200003
aF0.0
aF0.15384615384615385
aF0.038461538461538464
aF1.3460764305246102
aI0
aa(lp107
S'Q575'
p108
aF0.9786557917935962
aF0.8511980184719743
aF0.7427773291965348
aF0.627853881279
aF0.0958904109589
aF0.11187214611900001
aF0.157534246575
aF0.00684931506849
aF0.0
aF0.0
aF0.0
aF0.9999933258444942
aI2
aa(lp109
S'Q596'
p110
aF0.6284291589611131
aF0.49013314292402815
aF0.261147605966894
aF0.339711664482
aF0.30878112713
aF0.11035386631700002
aF0.236435124509
aF0.00471821756225
aF0.0
aF0.4
aF0.0
aF6.3999946373502965
aI1
aa(lp111
S'Q609'
p112
aF0.553935221200249
aF0.6057846958381894
aF0.1865857124591506
aF0.421832884097
aF0.167115902965
aF0.09568733153639998
aF0.29649595687300007
aF0.0188679245283
aF0.0
aF0.25
aF0.16666666666666666
aF0.9999643941345208
aI0
aa(lp113
S'Q611'
p114
aF0.46209909533054844
aF0.4790305124263668
aF0.21088386351687158
aF0.5796398891969999
aF0.128808864266
aF0.0983379501385
aF0.192520775623
aF0.000692520775623
aF0.0
aF0.3333333333333333
aF0.16666666666666666
aF0.9999401108980076
aI0
aa(lp115
S'Q612'
p116
aF0.8029301136444911
aF0.5946231578893251
aF0.4300755851055791
aF0.627853881279
aF0.0958904109589
aF0.111872146119
aF0.157534246575
aF0.00684931506849
aF0.0
aF0.0
aF0.0
aF0.9999130413371158
aI0
aa(lp117
S'Q617'
p118
aF0.8331433290797444
aF0.8134933754382948
aF0.5103677889432329
aF0.52277904328
aF0.126423690205
aF0.109339407745
aF0.23576309794999997
aF0.00569476082005
aF0.0
aF0.3333333333333333
aF0.0
aF0.9999922936102837
aI2
aa(lp119
S'Q619'
p120
aF0.8826544649984593
aF0.7572115374537227
aF0.5370569989471463
aF0.603896103896
aF0.114718614719
aF0.0670995670996
aF0.2113997114
aF0.001443001443
aF0.001443001443
aF0.0
aF0.0
aF0.999984700151642
aI2
aa(lp121
S'Q625'
p122
aF0.4195410103414477
aF0.4464817193010638
aF0.03357691361699681
aF0.339711664482
aF0.30878112713
aF0.11035386631700003
aF0.23643512450899998
aF0.00471821756225
aF0.0
aF0.3333333333333333
aF0.1111111111111111
aF0.9999454237898833
aI1
aa(lp123
S'Q627'
p124
aF0.44763024225996956
aF0.8032985676025323
aF0.0
aF0.339711664482
aF0.30878112713
aF0.110353866317
aF0.236435124509
aF0.00471821756225
aF0.0
aF0.0
aF0.0
aF0.9999235843150357
aI2
aa(lp125
S'Q643'
p126
aF0.9922652574431794
aF0.8539865874395602
aF0.47189343781908355
aF0.603896103896
aF0.114718614719
aF0.0670995670996
aF0.2113997114
aF0.001443001443
aF0.001443001443
aF0.0
aF0.0
aF0.9999878710102139
aI2
aa(lp127
S'Q652'
p128
aF0.3524469933847454
aF0.6845422155018114
aF0.1610593725784812
aF0.52277904328
aF0.126423690205
aF0.10933940774500002
aF0.23576309795
aF0.00569476082005
aF0.0
aF0.4
aF0.0
aF0.9999593326877816
aI2
aa(lp129
S'Q667'
p130
aF0.6354803372710343
aF0.19121944918816625
aF0.08516890242058883
aF0.4218328840970002
aF0.16711590296499979
aF0.09568733153639998
aF0.2964959568730002
aF0.0188679245283
aF0.0
aF0.041666666666666664
aF0.22916666666666666
aF0.9999488549063407
aI1
aa(lp131
S'Q672'
p132
aF0.73284643033375
aF0.8259197051257324
aF0.6551086946769311
aF0.47594936708899993
aF0.184810126582
aF0.0784810126582
aF0.258227848101
aF0.00253164556962
aF0.0
aF0.2
aF0.4
aF0.9999909435155112
aI2
aa(lp133
S'Q673'
p134
aF0.4048358542677793
aF0.663477467262459
aF0.32226153074155084
aF0.70281124498
aF0.0441767068273
aF0.116465863454
aF0.136546184739
aF0.0
aF0.0
aF0.25
aF0.0
aF0.9999763873750381
aI2
aa(lp135
S'Q693'
p136
aF0.3586483271005622
aF0.3015243357823291
aF0.018150857514599123
aF0.5796398891970003
aF0.12880886426599994
aF0.09833795013850005
aF0.19252077562299996
aF0.0006925207756229998
aF0.0
aF0.0
aF0.07407407407407407
aF0.9999077549489813
aI2
aa(lp137
S'Q757'
p138
aF0.7319945048298486
aF0.4450955759897649
aF0.10986715640799963
aF0.52277904328
aF0.126423690205
aF0.10933940774500005
aF0.23576309795000003
aF0.005694760820049999
aF0.0
aF0.3076923076923077
aF0.15384615384615385
aF0.9999832433088309
aI2
aa(lp139
S'Q764'
p140
aF0.21275007452386793
aF0.4898181039028842
aF0.26972260045962737
aF0.627853881279
aF0.0958904109589
aF0.111872146119
aF0.157534246575
aF0.00684931506849
aF0.0
aF0.0
aF0.0
aF0.999970179496867
aI2
aa(lp141
S'Q768'
p142
aF0.8764941286209308
aF0.6182647388000214
aF0.7193517531873292
aF0.49751243781099996
aF0.0820895522388
aF0.13681592039799997
aF0.283582089552
aF0.0
aF0.0
aF0.0
aF0.0
aF0.9999479763519041
aI1
aa(lp143
S'Q773'
p144
aF0.6858489619663063
aF0.5929511971917534
aF0.5658991426725084
aF0.551282051282
aF0.0512820512821
aF0.153846153846
aF0.24358974359
aF0.0
aF0.0
aF0.25
aF0.0
aF0.9999820377072617
aI1
aa(lp145
S'Q803'
p146
aF0.9042265137566214
aF0.7705633522351233
aF0.36554665908280115
aF0.627853881279
aF0.0958904109589
aF0.111872146119
aF0.157534246575
aF0.00684931506849
aF0.0
aF0.0
aF0.0
aF0.9999877951759022
aI0
aa(lp147
S'Q820'
p148
aF0.41359858153284823
aF0.308653898430476
aF0.09591230360704317
aF0.4218328840970002
aF0.16711590296499979
aF0.09568733153639998
aF0.2964959568730002
aF0.0188679245283
aF0.0
aF0.041666666666666664
aF0.020833333333333332
aF1.1862762336629018
aI2
aa(lp149
S'Q874'
p150
aF0.5255352065866493
aF0.5287889935157024
aF0.23095770113832623
aF0.603896103896
aF0.11471861471900001
aF0.06709956709959998
aF0.21139971139999997
aF0.0014430014430000001
aF0.0014430014430000001
aF0.14285714285714285
aF0.0
aF0.9999751283521318
aI0
aa(lp151
S'Q877'
p152
aF0.7741837282796284
aF0.6896111008359268
aF0.5241424183609592
aF0.603896103896
aF0.114718614719
aF0.0670995670996
aF0.2113997114
aF0.001443001443
aF0.001443001443
aF0.0
aF0.0
aF0.9999804805651419
aI1
aa(lp153
S'Q878'
p154
aF0.795879603964706
aF0.42195965750205683
aF0.4229317791498133
aF0.421832884097
aF0.167115902965
aF0.09568733153640001
aF0.296495956873
aF0.0188679245283
aF0.0
aF0.0
aF0.0
aF0.9999794203297689
aI0
aa(lp155
S'Q886'
p156
aF0.4429715137450243
aF0.18501817210327676
aF0.10098568453539636
aF0.339711664482
aF0.30878112713
aF0.110353866317
aF0.236435124509
aF0.00471821756225
aF0.0
aF0.25
aF0.25
aF0.9999551381809686
aI2
aa(lp157
S'Q890'
p158
aF0.7242203505341166
aF0.9532856395457441
aF0.645025666436095
aF0.627853881279
aF0.0958904109589
aF0.11187214611900001
aF0.157534246575
aF0.00684931506849
aF0.0
aF0.1111111111111111
aF0.0
aF0.9999876764673373
aI2
aa(lp159
S'Q907'
p160
aF0.9981486359377527
aF0.8933464817778957
aF0.7124497706064371
aF0.603896103896
aF0.11471861471900001
aF0.06709956709959998
aF0.2113997114
aF0.001443001443
aF0.001443001443
aF0.0
aF0.0
aF0.999993824661797
aI1
aa(lp161
S'Q924'
p162
aF0.1141456534730084
aF0.8320683958219852
aF0.1556997888323046
aF0.603896103896
aF0.114718614719
aF0.0670995670996
aF0.2113997114
aF0.001443001443
aF0.001443001443
aF0.0
aF0.0
aF0.9999602716223651
aI0
aa(lp163
S'Q933'
p164
aF0.7054629885429389
aF0.9243824795689703
aF0.5984557211824203
aF0.627853881279
aF0.0958904109589
aF0.111872146119
aF0.157534246575
aF0.00684931506849
aF0.0
aF0.0
aF0.0
aF0.9999826850249453
aI2
aa(lp165
S'Q947'
p166
aF0.4854616664438718
aF0.5484518282467002
aF0.07678484450731739
aF0.382899628253
aF0.226765799257
aF0.0669144981413
aF0.323420074349
aF0.0
aF0.0
aF0.0
aF0.0
aF0.9999629471142922
aI0
aa(lp167
S'Q964'
p168
aF0.41027395949752066
aF0.9583425030429416
aF0.3434189194640031
aF0.7450199203190001
aF0.0318725099602
aF0.111553784861
aF0.111553784861
aF0.0
aF0.0
aF0.3333333333333333
aF0.0
aF0.9999768739783649
aI2
aa(lp169
S'Q986'
p170
aF0.8175137813421879
aF0.5490279694473664
aF0.49999999999999994
aF0.658711217184
aF0.0787589498807
aF0.119331742243
aF0.143198090692
aF0.0
aF0.0
aF0.0
aF0.0
aF0.9999586083123461
aI1
aa(lp171
S'Q988'
p172
aF0.9840477959013368
aF0.9507896496244138
aF0.8112763718119712
aF0.603896103896
aF0.11471861471899998
aF0.0670995670996
aF0.2113997114
aF0.001443001443
aF0.001443001443
aF0.0
aF0.0
aF0.9999881385619455
aI1
aa(lp173
S'Q1006'
p174
aF0.9999667900511995
aF0.6971718249327753
aF0.7400452685227641
aF0.603896103896
aF0.114718614719
aF0.0670995670996
aF0.2113997114
aF0.001443001443
aF0.001443001443
aF0.0
aF0.0
aF0.9999906463147955
aI1
aa(lp175
S'Q1038'
p176
aF0.7403950924217029
aF0.4967888314018166
aF0.1544227482218018
aF0.603896103896
aF0.114718614719
aF0.0670995670996
aF0.2113997114
aF0.001443001443
aF0.001443001443
aF0.0
aF0.0
aF0.9999621541928805
aI0
aa(lp177
S'Q1040'
p178
aF0.599443079431786
aF0.695448071622357
aF0.4829451228392693
aF0.52277904328
aF0.126423690205
aF0.109339407745
aF0.23576309795
aF0.00569476082005
aF0.0
aF0.0
aF0.25
aF0.9999849378775687
aI0
aa(lp179
S'Q1066'
p180
aF0.8898643719419117
aF0.9752872239281551
aF0.7318040653635676
aF0.627853881279
aF0.0958904109589
aF0.111872146119
aF0.157534246575
aF0.00684931506849
aF0.0
aF0.0
aF0.0
aF0.9999942424900528
aI1
aa(lp181
S'Q1069'
p182
aF0.3390615468029224
aF0.39323757818391125
aF0.13308848189522593
aF0.52277904328
aF0.126423690205
aF0.10933940774500002
aF0.23576309795000003
aF0.00569476082005
aF0.0
aF0.16666666666666666
aF0.16666666666666666
aF0.9999675110517559
aI2
aa(lp183
S'Q1074'
p184
aF0.34034807753669366
aF0.20347429681051327
aF0.026261286571944507
aF0.47594936708899993
aF0.184810126582
aF0.0784810126582
aF0.258227848101
aF0.00253164556962
aF0.0
aF0.0
aF0.0
aF0.999811784650577
aI2
aa(lp185
S'Q1075'
p186
aF0.36401572790976144
aF0.20156050282518814
aF0.07224615482919261
aF0.603896103896
aF0.11471861471900001
aF0.06709956709959998
aF0.21139971139999994
aF0.0014430014430000004
aF0.0014430014430000004
aF0.18181818181818182
aF0.0
aF0.9998836136943953
aI2
aa(lp187
S'Q1086'
p188
aF0.43314864837460876
aF0.27992912395404207
aF0.14300668589019783
aF0.421832884097
aF0.167115902965
aF0.09568733153640001
aF0.296495956873
aF0.0188679245283
aF0.0
aF0.0
aF0.6666666666666666
aF0.9999809032060744
aI2
aa(lp189
S'Q1101'
p190
aF0.7246710774601476
aF0.5703005527823577
aF0.4146176311906584
aF0.627853881279
aF0.0958904109589
aF0.111872146119
aF0.157534246575
aF0.00684931506849
aF0.0
aF0.0
aF0.0
aF0.9999883474048177
aI0
aa(lp191
S'Q1106'
p192
aF0.8810692998108381
aF0.8359040489042591
aF0.5368926718245887
aF0.658711217184
aF0.0787589498807
aF0.11933174224299999
aF0.143198090692
aF0.0
aF0.0
aF0.0
aF0.0
aF0.9999935201511337
aI0
aa(lp193
S'Q1107'
p194
aF0.5041876955339784
aF0.7816006309606461
aF0.129693000697274
aF0.421832884097
aF0.167115902965
aF0.09568733153639998
aF0.29649595687300007
aF0.0188679245283
aF0.0
aF0.16666666666666666
aF0.3333333333333333
aF0.9999677639011297
aI2
aa(lp195
S'Q1128'
p196
aF0.9624948737567811
aF0.39769371514121943
aF0.3751056228602246
aF0.603896103896
aF0.114718614719
aF0.0670995670996
aF0.2113997114
aF0.001443001443
aF0.001443001443
aF0.2
aF0.0
aF0.9999819924782412
aI0
aa(lp197
S'Q1138'
p198
aF0.32374016024623964
aF0.324692046018259
aF0.047604027507430535
aF0.339711664482
aF0.30878112713
aF0.110353866317
aF0.236435124509
aF0.00471821756225
aF0.0
aF0.25
aF0.0
aF0.9998171195835857
aI2
aa(lp199
S'Q1147'
p200
aF0.5688108124168731
aF0.02754768404995023
aF0.20801257358446093
aF0.65625
aF0.0364583333333
aF0.166666666667
aF0.140625
aF0.0
aF0.0
aF0.0
aF0.0
aF0.9999384779436323
aI2
aa(lp201
S'Q1157'
p202
aF0.588444504496302
aF0.4877434857061812
aF0.1253725792652487
aF0.475949367089
aF0.18481012658199997
aF0.0784810126582
aF0.258227848101
aF0.00253164556962
aF0.0
aF0.25
aF0.0
aF0.9999561333818388
aI2
aa(lp203
S'Q1170'
p204
aF0.7027165849814039
aF0.2346164250781199
aF0.12453874459650706
aF0.339711664482
aF0.30878112713
aF0.11035386631700003
aF0.23643512450899998
aF0.00471821756225
aF0.0
aF0.3333333333333333
aF0.0
aF0.999838624418678
aI0
aa(lp205
S'Q1171'
p206
aF0.64200679814809
aF0.7096584075457584
aF0.01940223832869538
aF0.339711664482
aF0.30878112713
aF0.11035386631700003
aF0.23643512450899998
aF0.00471821756225
aF0.0
aF0.25
aF0.0
aF0.9999141200833835
aI0
aa(lp207
S'Q1174'
p208
aF0.3348379192416166
aF0.11871722869384009
aF0.08838834764831843
aF0.339711664482
aF0.30878112713
aF0.110353866317
aF0.236435124509
aF0.00471821756225
aF0.0
aF1.0
aF0.0
aF0.9999627521905977
aI2
aa(lp209
S'Q1180'
p210
aF0.24617031825671212
aF0.80694944398477
aF0.0
aF0.341395348837
aF0.262325581395
aF0.0986046511628
aF0.29488372093
aF0.00279069767442
aF0.0
aF0.0
aF0.0
aF0.9990895912446567
aI0
aa(lp211
S'Q1185'
p212
aF0.8055495600695659
aF0.4396497536040187
aF0.6039374319835168
aF0.4218328840969999
aF0.167115902965
aF0.09568733153639998
aF0.29649595687300007
aF0.0188679245283
aF0.0
aF0.0
aF0.0
aF0.9999636878989473
aI0
aa(lp213
S'Q1208'
p214
aF0.9288540102597035
aF0.5150548879211695
aF0.12021630121897225
aF0.603896103896
aF0.11471861471900001
aF0.06709956709959998
aF0.2113997114
aF0.001443001443
aF0.001443001443
aF0.0
aF0.0
aF0.9999764309401181
aI1
aa(lp215
S'Q1223'
p216
aF0.9912602707266791
aF0.817817134242303
aF0.49923017660270624
aF0.48275862069
aF0.051724137931
aF0.114942528736
aF0.344827586207
aF0.0
aF0.00574712643678
aF0.0
aF0.0
aF0.9999942150781528
aI1
aa(lp217
S'Q1230'
p218
aF0.41035977618694863
aF0.4742766847405759
aF0.08760887334415396
aF0.497232472325
aF0.185424354244
aF0.09963099631
aF0.214022140221
aF0.00369003690037
aF0.0
aF0.25
aF0.0
aF0.9999249285264173
aI0
aa(lp219
S'Q1234'
p220
aF0.7460385631555403
aF0.8373014744100756
aF0.3403002784115801
aF0.627853881279
aF0.09589041095889998
aF0.111872146119
aF0.157534246575
aF0.00684931506849
aF0.0
aF0.0
aF0.0
aF0.999989880766895
aI2
aa(lp221
S'Q1239'
p222
aF0.8113320140545219
aF0.7255665865397429
aF0.6706058323440824
aF0.49723247232500006
aF0.18542435424400006
aF0.09963099630999997
aF0.21402214022100002
aF0.00369003690037
aF0.0
aF0.4
aF0.0
aF0.999975092663089
aI0
aa(lp223
S'Q1260'
p224
aF0.9346047618907987
aF0.9785300345256432
aF0.5533835678799764
aF0.603896103896
aF0.114718614719
aF0.0670995670996
aF0.2113997114
aF0.001443001443
aF0.001443001443
aF0.0
aF0.25
aF0.9999907108511795
aI1
aa(lp225
S'Q1292'
p226
aF0.48749464202749565
aF0.2338852464167449
aF0.19345469827287828
aF0.603896103896
aF0.11471861471900001
aF0.06709956709959998
aF0.2113997114
aF0.001443001443
aF0.001443001443
aF0.0
aF0.0
aF2.499959602856797
aI0
aa(lp227
S'Q1321'
p228
aF0.8629219128849889
aF0.5804903294668434
aF0.47156859365371046
aF0.603896103896
aF0.11471861471900001
aF0.06709956709959998
aF0.21139971139999994
aF0.0014430014430000004
aF0.0014430014430000004
aF0.0
aF0.0
aF0.9999745261361934
aI0
aa(lp229
S'Q1323'
p230
aF0.642419954225135
aF0.223887169535049
aF0.1034045763069074
aF0.421832884097
aF0.167115902965
aF0.0956873315364
aF0.296495956873
aF0.0188679245283
aF0.0
aF0.0
aF0.0
aF0.9997499445303986
aI2
aa(lp231
S'Q1328'
p232
aF0.5093541280036146
aF0.5357536893671778
aF0.23134519898923064
aF0.421832884097
aF0.167115902965
aF0.0956873315364
aF0.296495956873
aF0.0188679245283
aF0.0
aF0.5
aF0.0
aF0.999976231687882
aI0
aa(lp233
S'Q1329'
p234
aF0.79769373593306
aF0.45612331020117375
aF0.44794834240663484
aF0.658711217184
aF0.0787589498807
aF0.119331742243
aF0.143198090692
aF0.0
aF0.0
aF0.0
aF0.0
aF0.9999861861193314
aI1
aa(lp235
S'Q1330'
p236
aF0.07815772739471497
aF0.17308515126969562
aF0.16116459280507603
aF0.339711664482
aF0.30878112713
aF0.110353866317
aF0.236435124509
aF0.00471821756225
aF0.0
aF0.0
aF0.0
aF0.9999530827067445
aI2
aa(lp237
S'Q1341'
p238
aF0.3846267596552686
aF0.7207061450943592
aF1e-05
aF0.497232472325
aF0.185424354244
aF0.09963099631
aF0.214022140221
aF0.00369003690037
aF0.0
aF0.0
aF0.0
aF10.0
aI2
aa(lp239
S'Q1344'
p240
aF0.5089356397324258
aF0.6658631211638765
aF0.3099156599586009
aF0.587866108787
aF0.10460251046
aF0.081589958159
aF0.223849372385
aF0.00209205020921
aF0.0
aF0.0
aF0.0
aF0.9999083163511595
aI2
aa(lp241
S'Q1347'
p242
aF0.7966063620018713
aF0.7070539025915741
aF0.26393293191821265
aF0.421832884097
aF0.167115902965
aF0.09568733153639998
aF0.29649595687300007
aF0.0188679245283
aF0.0
aF0.16666666666666666
aF0.0
aF0.9999845262593428
aI1
aa(lp243
S'Q1352'
p244
aF0.5246917240414202
aF0.8613696714645203
aF0.38267750484979535
aF0.52277904328
aF0.126423690205
aF0.109339407745
aF0.23576309795
aF0.00569476082005
aF0.0
aF0.0
aF0.0
aF0.9999883018956408
aI0
aa(lp245
S'Q1357'
p246
aF0.3646975497920318
aF0.4929178412064868
aF0.0
aF0.339711664482
aF0.30878112713
aF0.110353866317
aF0.236435124509
aF0.00471821756225
aF0.0
aF0.0
aF1.0
aF0.9995948832193124
aI0
aa(lp247
S'Q1358'
p248
aF0.6562791377788546
aF0.48629318436344054
aF0.4155439110723861
aF0.627853881279
aF0.09589041095889998
aF0.111872146119
aF0.157534246575
aF0.00684931506849
aF0.0
aF0.2857142857142857
aF0.0
aF0.9999696901113436
aI0
aa(lp249
S'Q1364'
p250
aF0.6361412537718512
aF0.2358987850636436
aF0.27497165237684323
aF0.421832884097
aF0.167115902965
aF0.0956873315364
aF0.296495956873
aF0.0188679245283
aF0.0
aF0.25
aF0.0
aF0.999929876721493
aI0
aa(lp251
S'Q1374'
p252
aF0.8928092420745685
aF0.6459005305436569
aF0.6833756910827588
aF0.52277904328
aF0.126423690205
aF0.10933940774500002
aF0.23576309795
aF0.00569476082005
aF0.0
aF0.2
aF0.0
aF0.999970624755601
aI2
aa(lp253
S'Q1387'
p254
aF0.3046406630701479
aF0.3311353160017613
aF0.03360909729236424
aF0.3397116644820002
aF0.3087811271299999
aF0.11035386631700005
aF0.23643512450900003
aF0.004718217562249999
aF0.0
aF0.05555555555555555
aF0.0
aF1.4995067640658308
aI2
aa(lp255
S'Q1392'
p256
aF0.59654517850314
aF0.6298042656856018
aF0.1326677144391731
aF0.3397116644820002
aF0.3087811271299999
aF0.11035386631700003
aF0.23643512450899998
aF0.0047182175622499985
aF0.0
aF0.19047619047619047
aF0.0
aF0.9999581405623417
aI0
aa(lp257
S'Q1431'
p258
aF0.7668754087245513
aF0.8237027691728904
aF0.40599852526759855
aF0.52277904328
aF0.126423690205
aF0.109339407745
aF0.23576309795
aF0.00569476082005
aF0.0
aF0.0
aF0.0
aF0.9999824616167018
aI0
aa(lp259
S'Q1434'
p260
aF0.8430667794905179
aF0.8823398137075945
aF0.6608905486287736
aF0.49723247232500006
aF0.18542435424400003
aF0.09963099631
aF0.214022140221
aF0.00369003690037
aF0.0
aF0.0
aF0.0
aF0.9999916100893089
aI1
aa(lp261
S'Q1461'
p262
aF0.09821519533472148
aF0.604992592688202
aF0.0
aF0.370629370629
aF0.314685314685
aF0.041958041958
aF0.265734265734
aF0.00699300699301
aF0.0
aF0.0
aF0.0
aF0.9997109420782918
aI2
aa(lp263
S'Q1462'
p264
aF0.39147847241090905
aF0.6381269865645827
aF0.012028130608117206
aF0.33971166448200013
aF0.30878112712999994
aF0.11035386631700005
aF0.23643512450900006
aF0.00471821756225
aF0.0
aF0.0
aF0.0625
aF0.9998293012755878
aI1
aa(lp265
S'Q1469'
p266
aF0.8581294857759912
aF0.7037655462160002
aF0.7018774736406056
aF0.627853881279
aF0.0958904109589
aF0.111872146119
aF0.157534246575
aF0.00684931506849
aF0.0
aF0.0
aF0.0
aF0.9999827643883156
aI0
aa(lp267
S'Q1474'
p268
aF0.39748433017634294
aF0.8287121101155843
aF0.19886370551870852
aF0.5796398891969999
aF0.128808864266
aF0.0983379501385
aF0.19252077562300002
aF0.000692520775623
aF0.0
aF0.14285714285714285
aF0.0
aF0.9999862923277049
aI0
aa(lp269
S'Q1490'
p270
aF0.4728460780571899
aF0.7844376945052409
aF0.0
aF0.341395348837
aF0.262325581395
aF0.0986046511628
aF0.29488372093
aF0.00279069767442
aF0.0
aF0.0
aF1.0
aF0.9998136730034016
aI2
aa(lp271
S'Q1513'
p272
aF0.8673122307495171
aF0.9193398644460166
aF0.5833333333333334
aF0.52277904328
aF0.126423690205
aF0.109339407745
aF0.23576309795
aF0.00569476082005
aF0.0
aF0.0
aF0.0
aF0.9999840928305607
aI2
aa(lp273
S'Q1519'
p274
aF0.8382538728269155
aF0.6331739984432222
aF0.47552841070048557
aF0.603896103896
aF0.11471861471899998
aF0.0670995670996
aF0.2113997114
aF0.001443001443
aF0.001443001443
aF0.3333333333333333
aF0.0
aF0.9999837829334158
aI2
aa(lp275
S'Q1532'
p276
aF0.9398135851170555
aF0.6097238420383969
aF0.44760694675589097
aF0.603896103896
aF0.114718614719
aF0.0670995670996
aF0.2113997114
aF0.001443001443
aF0.001443001443
aF0.0
aF0.0
aF0.9999917305480065
aI1
aa(lp277
S'Q1545'
p278
aF0.6115707066700486
aF0.4238076944453967
aF0.1559023911155809
aF0.341395348837
aF0.262325581395
aF0.0986046511628
aF0.29488372093
aF0.00279069767442
aF0.0
aF0.5
aF0.5
aF0.999947172918369
aI0
aa(lp279
S'Q1560'
p280
aF0.41875111078650384
aF0.46135968315847947
aF0.17180193583214715
aF0.475949367089
aF0.18481012658199997
aF0.0784810126582
aF0.258227848101
aF0.00253164556962
aF0.0
aF0.0
aF0.0
aF2.2856438452495214
aI2
aa(lp281
S'Q1571'
p282
aF0.8942637320082197
aF0.6617316354983408
aF0.06788442333021306
aF0.339711664482
aF0.30878112713
aF0.110353866317
aF0.236435124509
aF0.00471821756225
aF0.0
aF1.0
aF1.0
aF0.9997701997691423
aI0
aa(lp283
S'Q1580'
p284
aF0.7731492130631809
aF0.191059312580022
aF0.0
aF0.603896103896
aF0.114718614719
aF0.0670995670996
aF0.2113997114
aF0.001443001443
aF0.001443001443
aF0.0
aF0.0
aF0.9999744156494039
aI0
aa(lp285
S'Q1582'
p286
aF0.10297660064994812
aF0.8230187243474147
aF0.4472135954999579
aF0.579639889197
aF0.128808864266
aF0.0983379501385
aF0.192520775623
aF0.000692520775623
aF0.0
aF0.5
aF0.0
aF0.9999263905353053
aI0
aa(lp287
S'Q1607'
p288
aF0.670648842324101
aF0.6629640843533323
aF0.11030677777437549
aF0.4972324723250003
aF0.18542435424399997
aF0.09963099631000001
aF0.21402214022100005
aF0.0036900369003699984
aF0.0
aF0.0
aF0.07407407407407407
aF0.9999801651946212
aI2
aa(lp289
S'Q1621'
p290
aF0.5647851723047455
aF0.41912177877716317
aF0.1275951442472441
aF0.497232472325
aF0.185424354244
aF0.09963099631
aF0.214022140221
aF0.00369003690037
aF0.0
aF0.25
aF0.25
aF0.9997296218216007
aI2
aa(lp291
S'Q1622'
p292
aF0.9455991626987132
aF0.6441778509448072
aF0.3222462888779813
aF0.603896103896
aF0.11471861471899998
aF0.0670995670996
aF0.2113997114
aF0.001443001443
aF0.001443001443
aF0.0
aF0.0
aF0.9999812392553231
aI2
aa(lp293
S'Q1629'
p294
aF0.9662065974137013
aF0.9000091141850218
aF0.8141293352002018
aF0.603896103896
aF0.11471861471899998
aF0.0670995670996
aF0.2113997114
aF0.001443001443
aF0.001443001443
aF0.0
aF0.0
aF0.9999958712385562
aI0
aa(lp295
S'Q1666'
p296
aF0.9781828718031262
aF0.9446303952025205
aF0.5612486080160912
aF0.587866108787
aF0.10460251046
aF0.081589958159
aF0.223849372385
aF0.00209205020921
aF0.0
aF0.0
aF0.0
aF0.999984159520803
aI2
aa(lp297
S'Q1677'
p298
aF0.8883282124251378
aF0.9238866117170794
aF0.328853034244491
aF0.658711217184
aF0.0787589498807
aF0.119331742243
aF0.143198090692
aF0.0
aF0.0
aF0.0
aF0.0
aF0.9999897392241859
aI0
aa(lp299
S'Q1702'
p300
aF0.9577835573012908
aF0.812038866637186
aF0.6466848609137725
aF0.70281124498
aF0.0441767068273
aF0.11646586345399998
aF0.136546184739
aF0.0
aF0.0
aF0.0
aF0.0
aF0.9999936837537835
aI1
aa(lp301
S'Q1704'
p302
aF0.5799344424868325
aF0.8968754418940064
aF0.7808444946540453
aF0.627853881279
aF0.0958904109589
aF0.11187214611900001
aF0.157534246575
aF0.00684931506849
aF0.0
aF0.0
aF0.0
aF0.9999743586905308
aI0
aa(lp303
S'Q1735'
p304
aF0.3828421371847595
aF0.49492155589381254
aF0.08008659785771063
aF0.33971166448199985
aF0.30878112713000017
aF0.11035386631700003
aF0.23643512450900012
aF0.004718217562249996
aF0.0
aF0.32
aF0.04
aF2.259148889395857
aI0
aa(lp305
S'Q1770'
p306
aF0.6097313358424575
aF0.7555671096830707
aF0.5430891016504631
aF0.627853881279
aF0.0958904109589
aF0.111872146119
aF0.157534246575
aF0.00684931506849
aF0.0
aF0.0
aF0.0
aF0.9999876044239631
aI1
aa(lp307
S'Q1792'
p308
aF0.4140458376913756
aF0.43271535660160493
aF0.14806254682373537
aF0.339711664482
aF0.30878112713
aF0.110353866317
aF0.236435124509
aF0.00471821756225
aF0.0
aF0.25
aF0.0
aF0.9994611359207494
aI2
aa(lp309
S'Q1805'
p310
aF0.4512056488169404
aF0.3162484902987021
aF0.14809522462655797
aF0.875
aF0.125
aF0.0
aF0.0
aF0.0
aF0.0
aF0.0
aF0.0
aF0.999619906177326
aI1
aa(lp311
S'Q1808'
p312
aF0.3486438978077534
aF0.3342312953639561
aF0.03062942239322608
aF0.339711664482
aF0.30878112713
aF0.11035386631700003
aF0.23643512450899998
aF0.00471821756225
aF0.0
aF0.2222222222222222
aF0.0
aF0.9999243841156191
aI0
aa(lp313
S'Q1827'
p314
aF0.2765093209628926
aF0.21731272247860803
aF0.0
aF0.339711664482
aF0.30878112713
aF0.110353866317
aF0.236435124509
aF0.00471821756225
aF0.0
aF0.0
aF1.0
aF0.999823236210199
aI0
aa(lp315
S'Q1831'
p316
aF0.8654441259050394
aF0.7654891752469745
aF0.38859847389308716
aF0.49723247232499995
aF0.18542435424399997
aF0.09963099631
aF0.214022140221
aF0.00369003690037
aF0.0
aF0.0
aF0.0
aF0.999984064324117
aI1
aa(lp317
S'Q1837'
p318
aF0.9769633060032028
aF0.8943152939792521
aF0.5431742454844409
aF0.603896103896
aF0.11471861471899998
aF0.0670995670996
aF0.2113997114
aF0.001443001443
aF0.001443001443
aF0.0
aF0.0
aF0.9999966830444968
aI2
aa(lp319
S'Q1859'
p320
aF0.7690128871134829
aF0.5106885062964522
aF0.3527820030254228
aF0.627853881279
aF0.09589041095889998
aF0.111872146119
aF0.157534246575
aF0.00684931506849
aF0.0
aF0.0
aF0.0
aF0.999982962572423
aI2
aa(lp321
S'Q1869'
p322
aF0.7366960572510456
aF0.5912600596438391
aF0.3010100365341179
aF0.603896103896
aF0.114718614719
aF0.06709956709959998
aF0.21139971139999997
aF0.0014430014430000001
aF0.0014430014430000001
aF0.0
aF0.0
aF1.999963393529965
aI0
aa(lp323
S'Q1872'
p324
aF0.44326028168874887
aF0.21181234208036234
aF0.5130869707373632
aF0.579639889197
aF0.128808864266
aF0.0983379501385
aF0.192520775623
aF0.000692520775623
aF0.0
aF0.0
aF0.0
aF0.9999778203359945
aI0
aa(lp325
S'Q1887'
p326
aF0.6926527414696803
aF0.5250442068170802
aF0.17374231149499625
aF0.341395348837
aF0.262325581395
aF0.0986046511628
aF0.29488372093
aF0.00279069767442
aF0.0
aF0.6
aF0.0
aF0.9999686145245208
aI0
aa(lp327
S'Q1896'
p328
aF0.6931185830752625
aF0.8890618041025639
aF0.5631720386300724
aF0.551282051282
aF0.0512820512821
aF0.153846153846
aF0.24358974359
aF0.0
aF0.0
aF0.0
aF0.0
aF0.9999847913912525
aI1
aa(lp329
S'Q1898'
p330
aF0.4264874955850602
aF0.37832785497738036
aF0.06236205481379788
aF0.34139534883699985
aF0.262325581395
aF0.09860465116280002
aF0.2948837209299999
aF0.0027906976744200003
aF0.0
aF0.25
aF0.0
aF0.9998838216478685
aI0
aa(lp331
S'Q1903'
p332
aF0.4674194877361438
aF0.28762659492844295
aF0.19749560852855458
aF0.341395348837
aF0.262325581395
aF0.0986046511628
aF0.29488372093
aF0.00279069767442
aF0.0
aF0.6
aF0.2
aF0.9998303378004316
aI0
aa(lp333
S'Q1909'
p334
aF0.8693257551005654
aF0.9789071657495455
aF0.6405776476014067
aF0.627853881279
aF0.0958904109589
aF0.111872146119
aF0.157534246575
aF0.00684931506849
aF0.0
aF0.0
aF0.0
aF0.999994824366599
aI2
aa(lp335
S'Q1915'
p336
aF0.9917777564443043
aF0.7866714349369742
aF0.5345224838248487
aF0.603896103896
aF0.114718614719
aF0.0670995670996
aF0.2113997114
aF0.001443001443
aF0.001443001443
aF1.0
aF0.0
aF0.9999815957592404
aI2
aa(lp337
S'Q1927'
p338
aF0.7279837333924765
aF0.5609216273163709
aF0.10776250480328516
aF0.38289962825300006
aF0.2267657992569999
aF0.06691449814129997
aF0.32342007434900005
aF0.0
aF0.0
aF0.09523809523809523
aF0.047619047619047616
aF0.9999803810047398
aI2
aa(lp339
S'Q1978'
p340
aF0.30908442336147096
aF0.576278265874875
aF0.0
aF0.339711664482
aF0.30878112713
aF0.110353866317
aF0.236435124509
aF0.00471821756225
aF0.0
aF0.0
aF0.0
aF0.9999320603141196
aI1
aa(lp341
S'Q1985'
p342
aF0.148674275876376
aF0.2930115404111109
aF0.0
aF0.341395348837
aF0.262325581395
aF0.0986046511628
aF0.29488372093
aF0.00279069767442
aF0.0
aF1.0
aF0.0
aF0.9993348911446774
aI2
aa(lp343
S'Q2000'
p344
aF0.3842811383313013
aF0.4395071881603371
aF0.030058431390397745
aF0.339711664482
aF0.30878112713
aF0.11035386631700002
aF0.236435124509
aF0.00471821756225
aF0.0
aF0.4
aF0.0
aF2.799899158211736
aI2
aa(lp345
S'Q2005'
p346
aF0.8598487160691773
aF0.7872949536661543
aF0.5660804122970453
aF0.497232472325
aF0.18542435424399997
aF0.09963099631
aF0.21402214022100002
aF0.0036900369003700006
aF0.0
aF0.0
aF0.0
aF0.9999907936206761
aI0
aa(lp347
S'Q2014'
p348
aF0.8478103510026158
aF0.3694690661162759
aF0.17631775016522128
aF0.603896103896
aF0.114718614719
aF0.0670995670996
aF0.2113997114
aF0.001443001443
aF0.001443001443
aF0.0
aF0.0
aF0.9999625163510907
aI1
aa(lp349
S'Q2027'
p350
aF0.23333208797715224
aF0.420983235585301
aF0.07159123769322792
aF0.339711664482
aF0.30878112713
aF0.11035386631700002
aF0.236435124509
aF0.00471821756225
aF0.0
aF0.2
aF0.0
aF0.9999511461735645
aI2
aa(lp351
S'Q2033'
p352
aF0.5442705995351259
aF0.8877178357714208
aF0.4588403893555895
aF0.49751243781099996
aF0.0820895522388
aF0.13681592039799997
aF0.283582089552
aF0.0
aF0.0
aF0.0
aF0.0
aF0.9999883640625017
aI0
aa(lp353
S'Q2047'
p354
aF0.33554145727880025
aF0.6244671525942977
aF0.027780277777777782
aF0.497232472325
aF0.185424354244
aF0.09963099631
aF0.214022140221
aF0.00369003690037
aF0.0
aF0.25
aF0.0
aF3.2499640542874717
aI0
aa(lp355
S'Q2063'
p356
aF0.48997119172212134
aF0.41346257061775493
aF0.03333019214117354
aF0.475949367089
aF0.18481012658200002
aF0.0784810126582
aF0.25822784810099997
aF0.0025316455696200004
aF0.0
aF0.1875
aF0.0
aF2.1249041220984584
aI2
aa(lp357
S'Q2064'
p358
aF0.8698141828132379
aF0.6600210570775725
aF0.5561091013689317
aF0.65625
aF0.0364583333333
aF0.166666666667
aF0.140625
aF0.0
aF0.0
aF0.25
aF0.0
aF0.9999764120071211
aI0
aa(lp359
S'Q2066'
p360
aF0.5619892804827961
aF0.6278958873103602
aF0.29887297574375776
aF0.511904761905
aF0.126984126984
aF0.115079365079
aF0.246031746032
aF0.0
aF0.0
aF0.0
aF0.0
aF0.9999235159247428
aI1
aa(lp361
S'Q2067'
p362
aF0.38456051680271086
aF0.2510815868730493
aF0.15430334996209194
aF0.421832884097
aF0.167115902965
aF0.0956873315364
aF0.296495956873
aF0.0188679245283
aF0.0
aF0.0
aF0.5
aF0.9999448502742236
aI2
aa(lp363
S'Q2068'
p364
aF0.8945030740137094
aF0.4490328375882354
aF0.5329567914772567
aF0.627853881279
aF0.0958904109589
aF0.11187214611900001
aF0.157534246575
aF0.00684931506849
aF0.0
aF0.0
aF0.0
aF0.9999770895365201
aI0
aa(lp365
S'Q2085'
p366
aF0.39073820286267336
aF0.17737984835708326
aF0.045949041263982034
aF0.339711664482
aF0.30878112713
aF0.11035386631700003
aF0.23643512450899998
aF0.00471821756225
aF0.0
aF0.25
aF0.125
aF0.999322027016069
aI2
aa(lp367
S'Q2088'
p368
aF0.7944364072247053
aF0.44440979724410407
aF0.26978346587110025
aF0.603896103896
aF0.11471861471900001
aF0.06709956709959998
aF0.2113997114
aF0.001443001443
aF0.001443001443
aF0.3333333333333333
aF0.0
aF0.9999822578124449
aI1
aa(lp369
S'Q2089'
p370
aF0.7031326393994191
aF0.828817803115656
aF0.551051790576244
aF0.587866108787
aF0.10460251045999999
aF0.081589958159
aF0.223849372385
aF0.00209205020921
aF0.0
aF0.2
aF0.0
aF0.9999841744930166
aI2
aa(lp371
S'Q2106'
p372
aF0.3262709933901821
aF0.1567497248023127
aF0.1712382928930379
aF0.421832884097
aF0.167115902965
aF0.09568733153639998
aF0.29649595687300007
aF0.0188679245283
aF0.0
aF0.15384615384615385
aF0.0
aF0.999919569454494
aI0
aa(lp373
S'Q2115'
p374
aF0.6062356818864559
aF0.5962755053949194
aF0.5773502691896258
aF0.587866108787
aF0.10460251046
aF0.081589958159
aF0.223849372385
aF0.00209205020921
aF0.0
aF0.0
aF0.0
aF0.9998004720129522
aI0
aa(lp375
S'Q2116'
p376
aF0.5907856099502602
aF0.8316055534789957
aF0.4244247533416325
aF0.497232472325
aF0.185424354244
aF0.09963099631
aF0.214022140221
aF0.00369003690037
aF0.0
aF0.0
aF0.0
aF0.9999875144247843
aI0
aa(lp377
S'Q2118'
p378
aF0.8621434351338607
aF0.8106768569732846
aF0.46591449959201614
aF0.603896103896
aF0.11471861471899998
aF0.0670995670996
aF0.2113997114
aF0.001443001443
aF0.001443001443
aF0.0
aF0.0
aF0.9999903628363995
aI0
aa(lp379
S'Q2123'
p380
aF0.8472482387783725
aF0.6964621989720293
aF0.5248423476231304
aF0.5796398891969999
aF0.128808864266
aF0.0983379501385
aF0.192520775623
aF0.000692520775623
aF0.0
aF0.5
aF0.0
aF0.9999746763246152
aI1
aa(lp381
S'Q2129'
p382
aF0.5496519707945862
aF0.7613680679019775
aF0.5042750917806169
aF0.47594936708899993
aF0.184810126582
aF0.0784810126582
aF0.258227848101
aF0.00253164556962
aF0.0
aF0.4
aF0.0
aF0.9999799478956204
aI0
aa(lp383
S'Q2133'
p384
aF0.874731048046987
aF0.46826057361856915
aF0.6519604410074336
aF0.627853881279
aF0.0958904109589
aF0.111872146119
aF0.157534246575
aF0.00684931506849
aF0.0
aF0.0
aF0.0
aF0.9997885970199705
aI2
aa(lp385
S'Q2139'
p386
aF0.3187073603435973
aF0.26778768326999314
aF0.08796528112548947
aF0.579639889197
aF0.128808864266
aF0.0983379501385
aF0.192520775623
aF0.000692520775623
aF0.0
aF0.2
aF0.0
aF0.9999219656011761
aI0
aa(lp387
S'Q2145'
p388
aF0.6961474521166707
aF0.24663258422859866
aF1e-05
aF0.627853881279
aF0.0958904109589
aF0.111872146119
aF0.157534246575
aF0.00684931506849
aF0.0
aF0.0
aF1.0
aF10.0
aI2
aa(lp389
S'Q2158'
p390
aF0.7835833982015185
aF0.9105884383851635
aF0.2735035019312826
aF0.603896103896
aF0.11471861471899998
aF0.0670995670996
aF0.2113997114
aF0.001443001443
aF0.001443001443
aF0.3333333333333333
aF0.0
aF0.9999705684184947
aI1
aa(lp391
S'Q2162'
p392
aF0.2190030088288268
aF0.9296705190712464
aF0.0
aF0.370629370629
aF0.314685314685
aF0.041958041958
aF0.265734265734
aF0.00699300699301
aF0.0
aF0.0
aF0.0
aF0.9997816476579537
aI2
aa(lp393
S'Q2188'
p394
aF0.4905195842995985
aF0.5562458413015967
aF0.08909971695060755
aF0.497512437811
aF0.0820895522388
aF0.13681592039799997
aF0.283582089552
aF0.0
aF0.0
aF0.0
aF0.0
aF1.8998832889578208
aI2
aa(lp395
S'Q2189'
p396
aF0.49622022654496395
aF0.6999014791058026
aF0.07127846084411626
aF0.4759493670890004
aF0.18481012658200024
aF0.07848101265819989
aF0.25822784810100047
aF0.002531645569619996
aF0.0
aF0.0
aF0.17204301075268819
aF0.9999621261791808
aI2
aa(lp397
S'Q2200'
p398
aF0.3057847740499425
aF0.3869967192627902
aF0.0
aF0.707482993197
aF0.0884353741497
aF0.0544217687075
aF0.149659863946
aF0.0
aF0.0
aF0.2
aF0.0
aF0.9999301511025825
aI2
aa(lp399
S'Q2232'
p400
aF0.6019198883737502
aF0.10759492720733081
aF0.03710611730808074
aF0.603896103896
aF0.114718614719
aF0.06709956709959998
aF0.21139971139999997
aF0.0014430014430000004
aF0.0014430014430000004
aF0.047619047619047616
aF0.0
aF0.999716517666082
aI0
aa(lp401
S'Q2261'
p402
aF0.5571191419591017
aF0.566282832873658
aF0.1287195544395709
aF0.339711664482
aF0.30878112713
aF0.11035386631700003
aF0.23643512450899998
aF0.00471821756225
aF0.0
aF0.125
aF0.125
aF0.9999077213936347
aI0
aa(lp403
S'Q2265'
p404
aF0.7921054881700347
aF0.5415915127959536
aF0.166637119986639
aF0.603896103896
aF0.114718614719
aF0.06709956709959998
aF0.21139971139999997
aF0.0014430014430000001
aF0.0014430014430000001
aF0.2
aF0.0
aF0.9998241832860344
aI0
aa(lp405
S'Q2295'
p406
aF0.7758148991920694
aF0.4282942085029912
aF0.744959346906221
aF0.745019920319
aF0.0318725099602
aF0.111553784861
aF0.111553784861
aF0.0
aF0.0
aF0.0
aF0.0
aF0.9999877354498687
aI2
aa(lp407
S'Q2297'
p408
aF0.9773383891697435
aF0.6396058223950158
aF0.5406316228547717
aF0.587866108787
aF0.10460251046
aF0.081589958159
aF0.223849372385
aF0.00209205020921
aF0.0
aF0.0
aF0.0
aF0.9999839570639982
aI0
aa(lp409
S'Q2307'
p410
aF0.8301733786328482
aF0.8462848668254404
aF0.4884418055367231
aF0.497232472325
aF0.185424354244
aF0.09963099631
aF0.214022140221
aF0.00369003690037
aF0.0
aF0.0
aF0.0
aF0.9999926705870865
aI2
aa(lp411
S'Q2310'
p412
aF0.5588204758538782
aF0.6135048067852147
aF0.08503425313626745
aF0.33971166448199996
aF0.30878112713
aF0.11035386631699995
aF0.2364351245089999
aF0.004718217562249997
aF0.0
aF0.23529411764705882
aF0.4117647058823529
aF1.2645765260988333
aI1
aa(lp413
S'Q2341'
p414
aF0.8263364603241174
aF0.5293572057564409
aF0.6338965050964714
aF0.745019920319
aF0.0318725099602
aF0.111553784861
aF0.111553784861
aF0.0
aF0.0
aF0.0
aF0.0
aF0.999987013796451
aI0
aa(lp415
S'Q2355'
p416
aF0.7180125845649762
aF0.2585436472887153
aF0.3376438997200606
aF0.603896103896
aF0.11471861471900001
aF0.06709956709959998
aF0.2113997114
aF0.001443001443
aF0.001443001443
aF0.16666666666666666
aF0.0
aF0.9999391181400697
aI0
aa(lp417
S'Q2362'
p418
aF0.925809431432477
aF0.3392291089324528
aF0.6788567371362838
aF0.603896103896
aF0.11471861471900001
aF0.06709956709959998
aF0.2113997114
aF0.001443001443
aF0.001443001443
aF0.0
aF0.0
aF0.999977460998914
aI1
aa(lp419
S'Q2366'
p420
aF0.9314415399310512
aF0.864363612622048
aF0.5341520723567854
aF0.52277904328
aF0.126423690205
aF0.10933940774500003
aF0.23576309795
aF0.00569476082005
aF0.0
aF0.0
aF0.3
aF0.9999919060610457
aI1
aa(lp421
S'Q2391'
p422
aF0.9678476988803105
aF0.8408575835844755
aF0.6139069630881423
aF0.627853881279
aF0.0958904109589
aF0.111872146119
aF0.157534246575
aF0.00684931506849
aF0.0
aF0.3333333333333333
aF0.0
aF0.9999959644782432
aI0
aa(lp423
S'Q2410'
p424
aF0.9879275780100494
aF0.8707241949820811
aF0.6324555320336759
aF0.603896103896
aF0.114718614719
aF0.0670995670996
aF0.2113997114
aF0.001443001443
aF0.001443001443
aF0.0
aF0.0
aF0.9999886232535622
aI0
aa(lp425
S'Q2435'
p426
aF0.9448447041965332
aF0.9691665538771905
aF0.8049829843410472
aF0.587866108787
aF0.10460251046
aF0.081589958159
aF0.223849372385
aF0.00209205020921
aF0.0
aF0.0
aF0.0
aF0.9999899463472868
aI1
aa(lp427
S'Q2450'
p428
aF0.8667718888619462
aF0.35798087506166765
aF0.607298003264062
aF0.653846153846
aF0.0480769230769
aF0.100961538462
aF0.197115384615
aF0.0
aF0.0
aF0.5
aF0.0
aF0.9999802706633307
aI2
aa(lp429
S'Q2455'
p430
aF0.9708462517680728
aF0.5166161321003454
aF0.3258319892303512
aF0.603896103896
aF0.11471861471899998
aF0.0670995670996
aF0.2113997114
aF0.001443001443
aF0.001443001443
aF0.0
aF0.0
aF0.9999885020120826
aI0
aa(lp431
S'Q2505'
p432
aF0.5691678742074091
aF0.1459551799803571
aF0.3064528343734953
aF0.627853881279
aF0.0958904109589
aF0.111872146119
aF0.157534246575
aF0.00684931506849
aF0.0
aF0.0
aF0.0
aF0.9999281515507746
aI1
aa(lp433
S'Q2519'
p434
aF0.46692587153236376
aF0.5571697694963293
aF0.14192919795502473
aF0.4218328840969999
aF0.167115902965
aF0.09568733153639998
aF0.29649595687300007
aF0.0188679245283
aF0.0
aF0.5
aF0.0
aF0.9999784894668047
aI0
aa(lp435
S'Q2549'
p436
aF0.9811015594949771
aF-0.0002500290365645113
aF0.0
aF0.339711664482
aF0.30878112713
aF0.110353866317
aF0.236435124509
aF0.00471821756225
aF0.0
aF0.0
aF0.0
aF0.9999616488105538
aI0
aa(lp437
S'Q2564'
p438
aF0.55020934766251
aF0.44403246438874905
aF0.21486164115366888
aF0.511904761905
aF0.126984126984
aF0.115079365079
aF0.24603174603200004
aF0.0
aF0.0
aF0.16666666666666666
aF0.16666666666666666
aF0.9999288191004093
aI0
aa(lp439
S'Q2568'
p440
aF0.8033952031948793
aF0.7290855868576234
aF0.6467155272107346
aF0.658711217184
aF0.0787589498807
aF0.119331742243
aF0.143198090692
aF0.0
aF0.0
aF0.0
aF0.0
aF0.999987292179672
aI1
aa(lp441
S'Q2575'
p442
aF0.4406773131028169
aF0.24626154980484616
aF0.17463753627438955
aF0.603896103896
aF0.114718614719
aF0.0670995670996
aF0.2113997114
aF0.001443001443
aF0.001443001443
aF0.0
aF0.0
aF0.9999485696404156
aI2
aa(lp443
S'Q2581'
p444
aF0.8643466563631385
aF0.5651102092569908
aF0.22182456129975753
aF0.603896103896
aF0.11471861471900001
aF0.06709956709959998
aF0.21139971139999994
aF0.0014430014430000004
aF0.0014430014430000004
aF0.0
aF0.125
aF0.9999754334414677
aI0
aa(lp445
S'Q2589'
p446
aF0.345868274721476
aF0.42947580435785365
aF0.16037507477489607
aF0.341395348837
aF0.262325581395
aF0.0986046511628
aF0.29488372093
aF0.0027906976744199994
aF0.0
aF0.0
aF0.0
aF0.9999720115897487
aI2
aa(lp447
S'Q2594'
p448
aF0.39922807679672057
aF0.5625688111217931
aF0.09468699441970178
aF0.3706293706289998
aF0.31468531468499994
aF0.04195804195800001
aF0.26573426573400005
aF0.006993006993010003
aF0.0
aF0.0
aF0.0
aF1.4088497736447687
aI0
aa.